ccollections
defaultdict
p0
(c__builtin__
list
p1
tp2
Rp3
(I18
I1
F0.3
tp4
(lp5
(cnumpy.core.multiarray
scalar
p6
(cnumpy
dtype
p7
(S'i8'
p8
I0
I1
tp9
Rp10
(I3
S'<'
p11
NNNI-1
I-1
I0
tp12
bS'\x81\x00\x00\x00\x00\x00\x00\x00'
p13
tp14
Rp15
g6
(g7
(S'f4'
p16
I0
I1
tp17
Rp18
(I3
S'<'
p19
NNNI-1
I-1
I0
tp20
bS'\x00\x00\x80?'
p21
tp22
Rp23
tp24
a(g6
(g10
S'\xfe\x02\x00\x00\x00\x00\x00\x00'
p25
tp26
Rp27
g6
(g18
S'\x93\xf5s?'
p28
tp29
Rp30
tp31
a(g6
(g10
S'\xe1\x01\x00\x00\x00\x00\x00\x00'
p32
tp33
Rp34
g6
(g18
S'\xe4\xceq?'
p35
tp36
Rp37
tp38
a(g6
(g10
S'1\x07\x00\x00\x00\x00\x00\x00'
p39
tp40
Rp41
g6
(g18
S'\xe2\ro?'
p42
tp43
Rp44
tp45
a(g6
(g10
S'\xdc\x04\x00\x00\x00\x00\x00\x00'
p46
tp47
Rp48
g6
(g18
S'_\x19n?'
p49
tp50
Rp51
tp52
as(I25
S'asymmetric'
p53
I3
tp54
(lp55
(g6
(g10
S'0\x00\x00\x00\x00\x00\x00\x00'
p56
tp57
Rp58
g6
(g18
S'\x00\x00\x80?'
p59
tp60
Rp61
tp62
a(g6
(g10
S'A\x00\x00\x00\x00\x00\x00\x00'
p63
tp64
Rp65
g6
(g18
S'\x00\x00\x80?'
p66
tp67
Rp68
tp69
a(g15
g6
(g18
S'\x00\x00\x80?'
p70
tp71
Rp72
tp73
a(g6
(g10
S'\x83\x00\x00\x00\x00\x00\x00\x00'
p74
tp75
Rp76
g6
(g18
S'\x00\x00\x80?'
p77
tp78
Rp79
tp80
a(g6
(g10
S'\xa5\x00\x00\x00\x00\x00\x00\x00'
p81
tp82
Rp83
g6
(g18
S'\x00\x00\x80?'
p84
tp85
Rp86
tp87
as(I25
S'auto'
p88
F0.3
tp89
(lp90
(g15
g6
(g18
S'\xff\xff\x7f?'
p91
tp92
Rp93
tp94
a(g6
(g10
S'\xb5\x05\x00\x00\x00\x00\x00\x00'
p95
tp96
Rp97
g6
(g18
S'\xd24u?'
p98
tp99
Rp100
tp101
a(g6
(g10
S'4\x06\x00\x00\x00\x00\x00\x00'
p102
tp103
Rp104
g6
(g18
S'\xd4\xe5q?'
p105
tp106
Rp107
tp108
a(g6
(g10
S'\x9c\x04\x00\x00\x00\x00\x00\x00'
p109
tp110
Rp111
g6
(g18
S'l\rq?'
p112
tp113
Rp114
tp115
a(g6
(g10
S'\xe4\x04\x00\x00\x00\x00\x00\x00'
p116
tp117
Rp118
g6
(g18
S'V\xe9p?'
p119
tp120
Rp121
tp122
as(I30
I3
F0.3
tp123
(lp124
(g15
g6
(g18
S'\x00\x00\x80?'
p125
tp126
Rp127
tp128
a(g6
(g10
S'n\x07\x00\x00\x00\x00\x00\x00'
p129
tp130
Rp131
g6
(g18
S'\xdaCw?'
p132
tp133
Rp134
tp135
a(g6
(g10
S'I\x05\x00\x00\x00\x00\x00\x00'
p136
tp137
Rp138
g6
(g18
S'\x06\xces?'
p139
tp140
Rp141
tp142
a(g27
g6
(g18
S'\xe2\xcdp?'
p143
tp144
Rp145
tp146
a(g6
(g10
S'\x0f\x03\x00\x00\x00\x00\x00\x00'
p147
tp148
Rp149
g6
(g18
S'\xd0\xaem?'
p150
tp151
Rp152
tp153
as(I25
I3
F0.3
tp154
(lp155
(g15
g6
(g18
S'\xff\xff\x7f?'
p156
tp157
Rp158
tp159
a(g6
(g10
S'\x9a\x01\x00\x00\x00\x00\x00\x00'
p160
tp161
Rp162
g6
(g18
S'\x80\x17t?'
p163
tp164
Rp165
tp166
a(g6
(g10
S'\xa1\x07\x00\x00\x00\x00\x00\x00'
p167
tp168
Rp169
g6
(g18
S'o[d?'
p170
tp171
Rp172
tp173
a(g6
(g10
S'n\x04\x00\x00\x00\x00\x00\x00'
p174
tp175
Rp176
g6
(g18
S'A@a?'
p177
tp178
Rp179
tp180
a(g6
(g10
S'\xb1\x04\x00\x00\x00\x00\x00\x00'
p181
tp182
Rp183
g6
(g18
S'?v_?'
p184
tp185
Rp186
tp187
as(I30
g53
I1
tp188
(lp189
(g15
g6
(g18
S'\x00\x00\x80?'
p190
tp191
Rp192
tp193
a(g6
(g10
S'\xb2\x04\x00\x00\x00\x00\x00\x00'
p194
tp195
Rp196
g6
(g18
S';\xfc\x7f?'
p197
tp198
Rp199
tp200
a(g6
(g10
S'\x1f\x00\x00\x00\x00\x00\x00\x00'
p201
tp202
Rp203
g6
(g18
S'\xc6\xd9\x7f?'
p204
tp205
Rp206
tp207
a(g27
g6
(g18
S'\xda\xc6\x7f?'
p208
tp209
Rp210
tp211
a(g6
(g10
S'\x9c\x06\x00\x00\x00\x00\x00\x00'
p212
tp213
Rp214
g6
(g18
S'\x01\xb5\x7f?'
p215
tp216
Rp217
tp218
as(I25
g53
I1
tp219
(lp220
(g15
g6
(g18
S'\xff\xff\x7f?'
p221
tp222
Rp223
tp224
a(g6
(g10
S'\x8b\x00\x00\x00\x00\x00\x00\x00'
p225
tp226
Rp227
g6
(g18
S'p\x90\x7f?'
p228
tp229
Rp230
tp231
a(g6
(g10
S'I\x06\x00\x00\x00\x00\x00\x00'
p232
tp233
Rp234
g6
(g18
S'\xc6\xdc~?'
p235
tp236
Rp237
tp238
a(g6
(g10
S'\xbd\x06\x00\x00\x00\x00\x00\x00'
p239
tp240
Rp241
g6
(g18
S'\x98\xb9~?'
p242
tp243
Rp244
tp245
a(g6
(g10
S'7\x05\x00\x00\x00\x00\x00\x00'
p246
tp247
Rp248
g6
(g18
S'\x7f\xac~?'
p249
tp250
Rp251
tp252
as(I18
g88
I3
tp253
(lp254
(g58
g6
(g18
S'\x00\x00\x80?'
p255
tp256
Rp257
tp258
a(g65
g6
(g18
S'\x00\x00\x80?'
p259
tp260
Rp261
tp262
a(g15
g6
(g18
S'\x00\x00\x80?'
p263
tp264
Rp265
tp266
a(g83
g6
(g18
S'\x00\x00\x80?'
p267
tp268
Rp269
tp270
a(g6
(g10
S'\xb7\x00\x00\x00\x00\x00\x00\x00'
p271
tp272
Rp273
g6
(g18
S'\x00\x00\x80?'
p274
tp275
Rp276
tp277
as(I18
S'symmetric'
p278
I1
tp279
(lp280
(g15
g6
(g18
S'\xff\xff\x7f?'
p281
tp282
Rp283
tp284
a(g176
g6
(g18
S'<\x95}?'
p285
tp286
Rp287
tp288
a(g6
(g10
S'\x84\x08\x00\x00\x00\x00\x00\x00'
p289
tp290
Rp291
g6
(g18
S'\x1ciz?'
p292
tp293
Rp294
tp295
a(g6
(g10
S'\x14\x03\x00\x00\x00\x00\x00\x00'
p296
tp297
Rp298
g6
(g18
S'p\xc2y?'
p299
tp300
Rp301
tp302
a(g48
g6
(g18
S'.=x?'
p303
tp304
Rp305
tp306
as(I25
g53
g88
tp307
(lp308
(g15
g6
(g18
S'\x00\x00\x80?'
p309
tp310
Rp311
tp312
a(g34
g6
(g18
S'\x92\xafz?'
p313
tp314
Rp315
tp316
a(g6
(g10
S'\xf3\x07\x00\x00\x00\x00\x00\x00'
p317
tp318
Rp319
g6
(g18
S'V\x83y?'
p320
tp321
Rp322
tp323
a(g6
(g10
S'\xad\x02\x00\x00\x00\x00\x00\x00'
p324
tp325
Rp326
g6
(g18
S'\xf6\xccw?'
p327
tp328
Rp329
tp330
a(g76
g6
(g18
S'\xceGw?'
p331
tp332
Rp333
tp334
as(I30
g53
I3
tp335
(lp336
(g6
(g10
S'\x0e\x00\x00\x00\x00\x00\x00\x00'
p337
tp338
Rp339
g6
(g18
S'\x00\x00\x80?'
p340
tp341
Rp342
tp343
a(g58
g6
(g18
S'\x00\x00\x80?'
p344
tp345
Rp346
tp347
a(g65
g6
(g18
S'\x00\x00\x80?'
p348
tp349
Rp350
tp351
a(g6
(g10
S'}\x00\x00\x00\x00\x00\x00\x00'
p352
tp353
Rp354
g6
(g18
S'\x00\x00\x80?'
p355
tp356
Rp357
tp358
a(g15
g6
(g18
S'\x00\x00\x80?'
p359
tp360
Rp361
tp362
as(I18
g88
g88
tp363
(lp364
(g15
g6
(g18
S'\x00\x00\x80?'
p365
tp366
Rp367
tp368
a(g6
(g10
S'\x16\x01\x00\x00\x00\x00\x00\x00'
p369
tp370
Rp371
g6
(g18
S'a\x12r?'
p372
tp373
Rp374
tp375
a(g227
g6
(g18
S'\xc07n?'
p376
tp377
Rp378
tp379
a(g131
g6
(g18
S'\xb6\xbdj?'
p380
tp381
Rp382
tp383
a(g27
g6
(g18
S'\xb60g?'
p384
tp385
Rp386
tp387
as(I18
g278
g88
tp388
(lp389
(g15
g6
(g18
S'\x00\x00\x80?'
p390
tp391
Rp392
tp393
a(g6
(g10
S'\x83\x08\x00\x00\x00\x00\x00\x00'
p394
tp395
Rp396
g6
(g18
S'\x8c\xa4r?'
p397
tp398
Rp399
tp400
a(g6
(g10
S'\xe3\x05\x00\x00\x00\x00\x00\x00'
p401
tp402
Rp403
g6
(g18
S'\x08\x1co?'
p404
tp405
Rp406
tp407
a(g176
g6
(g18
S'I\x8en?'
p408
tp409
Rp410
tp411
a(g6
(g10
S'^\x06\x00\x00\x00\x00\x00\x00'
p412
tp413
Rp414
g6
(g18
S'\xfe\x16n?'
p415
tp416
Rp417
tp418
as(I18
g88
I1
tp419
(lp420
(g15
g6
(g18
S'\xff\xff\x7f?'
p421
tp422
Rp423
tp424
a(g6
(g10
S'\x81\x07\x00\x00\x00\x00\x00\x00'
p425
tp426
Rp427
g6
(g18
S'\xa0\xed~?'
p428
tp429
Rp430
tp431
a(g6
(g10
S'*\x07\x00\x00\x00\x00\x00\x00'
p432
tp433
Rp434
g6
(g18
S'\x08\x88~?'
p435
tp436
Rp437
tp438
a(g138
g6
(g18
S'\x87\x9c}?'
p439
tp440
Rp441
tp442
a(g131
g6
(g18
S'`\xe3|?'
p443
tp444
Rp445
tp446
as(I18
g278
I3
tp447
(lp448
(g339
g6
(g18
S'\x00\x00\x80?'
p449
tp450
Rp451
tp452
a(g65
g6
(g18
S'\x00\x00\x80?'
p453
tp454
Rp455
tp456
a(g15
g6
(g18
S'\x00\x00\x80?'
p457
tp458
Rp459
tp460
a(g76
g6
(g18
S'\x00\x00\x80?'
p461
tp462
Rp463
tp464
a(g83
g6
(g18
S'\x00\x00\x80?'
p465
tp466
Rp467
tp468
as(I40
I1
g88
tp469
(lp470
(g15
g6
(g18
S'\xff\xff\x7f?'
p471
tp472
Rp473
tp474
a(g34
g6
(g18
S'\t\xb4Z?'
p475
tp476
Rp477
tp478
a(g6
(g10
S'\xeb\x05\x00\x00\x00\x00\x00\x00'
p479
tp480
Rp481
g6
(g18
S'\xa4\x07Z?'
p482
tp483
Rp484
tp485
a(g27
g6
(g18
S';\xe6Y?'
p486
tp487
Rp488
tp489
a(g6
(g10
S'x\x04\x00\x00\x00\x00\x00\x00'
p490
tp491
Rp492
g6
(g18
S'\xec\x1eV?'
p493
tp494
Rp495
tp496
as(I20
I3
F0.3
tp497
(lp498
(g15
g6
(g18
S'\x00\x00\x80?'
p499
tp500
Rp501
tp502
a(g27
g6
(g18
S'`\x97p?'
p503
tp504
Rp505
tp506
a(g6
(g10
S'\xf2\x04\x00\x00\x00\x00\x00\x00'
p507
tp508
Rp509
g6
(g18
S'7Gg?'
p510
tp511
Rp512
tp513
a(g6
(g10
S'Z\x01\x00\x00\x00\x00\x00\x00'
p514
tp515
Rp516
g6
(g18
S'\x9e\xaac?'
p517
tp518
Rp519
tp520
a(g326
g6
(g18
S'\xb6\x92c?'
p521
tp522
Rp523
tp524
as(I40
g53
I10
tp525
(lp526
(g6
(g10
S'\x06\x00\x00\x00\x00\x00\x00\x00'
p527
tp528
Rp529
g6
(g18
S'\x00\x00\x80?'
p530
tp531
Rp532
tp533
a(g6
(g10
S'\x0c\x00\x00\x00\x00\x00\x00\x00'
p534
tp535
Rp536
g6
(g18
S'\x00\x00\x80?'
p537
tp538
Rp539
tp540
a(g6
(g10
S'&\x00\x00\x00\x00\x00\x00\x00'
p541
tp542
Rp543
g6
(g18
S'\x00\x00\x80?'
p544
tp545
Rp546
tp547
a(g6
(g10
S'(\x00\x00\x00\x00\x00\x00\x00'
p548
tp549
Rp550
g6
(g18
S'\x00\x00\x80?'
p551
tp552
Rp553
tp554
a(g6
(g10
S'*\x00\x00\x00\x00\x00\x00\x00'
p555
tp556
Rp557
g6
(g18
S'\x00\x00\x80?'
p558
tp559
Rp560
tp561
as(I25
I1
I10
tp562
(lp563
(g6
(g10
S'D\x07\x00\x00\x00\x00\x00\x00'
p564
tp565
Rp566
g6
(g18
S'\x00\x00\x80?'
p567
tp568
Rp569
tp570
a(g6
(g10
S'\x95\x07\x00\x00\x00\x00\x00\x00'
p571
tp572
Rp573
g6
(g18
S'\x00\x00\x80?'
p574
tp575
Rp576
tp577
a(g15
g6
(g18
S'\xff\xff\x7f?'
p578
tp579
Rp580
tp581
a(g427
g6
(g18
S'\xf4\xff\x7f?'
p582
tp583
Rp584
tp585
a(g6
(g10
S'q\x04\x00\x00\x00\x00\x00\x00'
p586
tp587
Rp588
g6
(g18
S'\xed\xff\x7f?'
p589
tp590
Rp591
tp592
as(I40
I10
F0.3
tp593
(lp594
(g15
g6
(g18
S'\x00\x00\x80?'
p595
tp596
Rp597
tp598
a(g227
g6
(g18
S'G,{?'
p599
tp600
Rp601
tp602
a(g149
g6
(g18
S'0\xb5x?'
p603
tp604
Rp605
tp606
a(g183
g6
(g18
S'\xc3\x9ex?'
p607
tp608
Rp609
tp610
a(g6
(g10
S'\x1f\x07\x00\x00\x00\x00\x00\x00'
p611
tp612
Rp613
g6
(g18
S'Msx?'
p614
tp615
Rp616
tp617
as(I40
g88
g88
tp618
(lp619
(g15
g6
(g18
S'\x01\x00\x80?'
p620
tp621
Rp622
tp623
a(g234
g6
(g18
S'4Zu?'
p624
tp625
Rp626
tp627
a(g227
g6
(g18
S'\xda\xa7l?'
p628
tp629
Rp630
tp631
a(g588
g6
(g18
S'\x00x`?'
p632
tp633
Rp634
tp635
a(g6
(g10
S'\x96\x02\x00\x00\x00\x00\x00\x00'
p636
tp637
Rp638
g6
(g18
S'\xfd(`?'
p639
tp640
Rp641
tp642
as(I20
g278
F0.3
tp643
(lp644
(g15
g6
(g18
S'\x00\x00\x80?'
p645
tp646
Rp647
tp648
a(g6
(g10
S'(\x06\x00\x00\x00\x00\x00\x00'
p649
tp650
Rp651
g6
(g18
S'\x8fhv?'
p652
tp653
Rp654
tp655
a(g6
(g10
S'f\x05\x00\x00\x00\x00\x00\x00'
p656
tp657
Rp658
g6
(g18
S'8\xfeu?'
p659
tp660
Rp661
tp662
a(g326
g6
(g18
S'u=p?'
p663
tp664
Rp665
tp666
a(g6
(g10
S']\x07\x00\x00\x00\x00\x00\x00'
p667
tp668
Rp669
g6
(g18
S'\x98\xeem?'
p670
tp671
Rp672
tp673
as(I20
I1
I10
tp674
(lp675
(g15
g6
(g18
S'\x00\x00\x80?'
p676
tp677
Rp678
tp679
a(g588
g6
(g18
S'\xff\xff\x7f?'
p680
tp681
Rp682
tp683
a(g6
(g10
S'\xfc\x03\x00\x00\x00\x00\x00\x00'
p684
tp685
Rp686
g6
(g18
S'\x96\xff\x7f?'
p687
tp688
Rp689
tp690
a(g6
(g10
S'\xf2\x00\x00\x00\x00\x00\x00\x00'
p691
tp692
Rp693
g6
(g18
S'\x9f\xfe\x7f?'
p694
tp695
Rp696
tp697
a(g427
g6
(g18
S',\xfe\x7f?'
p698
tp699
Rp700
tp701
as(I20
I3
I3
tp702
(lp703
(g15
g6
(g18
S'\x00\x00\x80?'
p704
tp705
Rp706
tp707
a(g6
(g10
S'\xef\x05\x00\x00\x00\x00\x00\x00'
p708
tp709
Rp710
g6
(g18
S'H\xbb\x7f?'
p711
tp712
Rp713
tp714
a(g291
g6
(g18
S'\xdb\xa1\x7f?'
p715
tp716
Rp717
tp718
a(g65
g6
(g18
S'\x86\x9c\x7f?'
p719
tp720
Rp721
tp722
a(g6
(g10
S'\xe4\x06\x00\x00\x00\x00\x00\x00'
p723
tp724
Rp725
g6
(g18
S'}\x8d\x7f?'
p726
tp727
Rp728
tp729
as(I40
I1
F0.3
tp730
(lp731
(g15
g6
(g18
S'\x00\x00\x80?'
p732
tp733
Rp734
tp735
a(g481
g6
(g18
S'\x9a6k?'
p736
tp737
Rp738
tp739
a(g227
g6
(g18
S'\xba\xdci?'
p740
tp741
Rp742
tp743
a(g176
g6
(g18
S'\xfe\xc6h?'
p744
tp745
Rp746
tp747
a(g27
g6
(g18
S'#\x99f?'
p748
tp749
Rp750
tp751
as(I18
I3
I1
tp752
(lp753
(g15
g6
(g18
S'\x00\x00\x80?'
p754
tp755
Rp756
tp757
a(g227
g6
(g18
S',\xa4}?'
p758
tp759
Rp760
tp761
a(g371
g6
(g18
S'\t\xf2|?'
p762
tp763
Rp764
tp765
a(g131
g6
(g18
S'\xbd\xfa{?'
p766
tp767
Rp768
tp769
a(g241
g6
(g18
S'E\xf1z?'
p770
tp771
Rp772
tp773
as(I18
I1
I10
tp774
(lp775
(g15
g6
(g18
S'\x00\x00\x80?'
p776
tp777
Rp778
tp779
a(g6
(g10
S'>\x06\x00\x00\x00\x00\x00\x00'
p780
tp781
Rp782
g6
(g18
S'\xff\xff\x7f?'
p783
tp784
Rp785
tp786
a(g83
g6
(g18
S'\xfe\xff\x7f?'
p787
tp788
Rp789
tp790
a(g6
(g10
S'\xf5\x06\x00\x00\x00\x00\x00\x00'
p791
tp792
Rp793
g6
(g18
S'\xfd\xff\x7f?'
p794
tp795
Rp796
tp797
a(g118
g6
(g18
S'\xfc\xff\x7f?'
p798
tp799
Rp800
tp801
as(I20
g53
g88
tp802
(lp803
(g15
g6
(g18
S'\xff\xff\x7f?'
p804
tp805
Rp806
tp807
a(g326
g6
(g18
S'\x9a\xc6u?'
p808
tp809
Rp810
tp811
a(g227
g6
(g18
S'\xc6\x9au?'
p812
tp813
Rp814
tp815
a(g658
g6
(g18
S'-\xedm?'
p816
tp817
Rp818
tp819
a(g291
g6
(g18
S'\xea\xb4l?'
p820
tp821
Rp822
tp823
as(I20
g278
I10
tp824
(lp825
(g529
g6
(g18
S'\x00\x00\x80?'
p826
tp827
Rp828
tp829
a(g536
g6
(g18
S'\x00\x00\x80?'
p830
tp831
Rp832
tp833
a(g550
g6
(g18
S'\x00\x00\x80?'
p834
tp835
Rp836
tp837
a(g557
g6
(g18
S'\x00\x00\x80?'
p838
tp839
Rp840
tp841
a(g6
(g10
S'/\x00\x00\x00\x00\x00\x00\x00'
p842
tp843
Rp844
g6
(g18
S'\x00\x00\x80?'
p845
tp846
Rp847
tp848
as(I18
I10
I3
tp849
(lp850
(g15
g6
(g18
S'\x00\x00\x80?'
p851
tp852
Rp853
tp854
a(g638
g6
(g18
S'-~}?'
p855
tp856
Rp857
tp858
a(g6
(g10
S'\x04\x02\x00\x00\x00\x00\x00\x00'
p859
tp860
Rp861
g6
(g18
S'\xa80}?'
p862
tp863
Rp864
tp865
a(g793
g6
(g18
S'\x99\x95|?'
p866
tp867
Rp868
tp869
a(g118
g6
(g18
S'(}|?'
p870
tp871
Rp872
tp873
as(I20
I3
I1
tp874
(lp875
(g15
g6
(g18
S'\x00\x00\x80?'
p876
tp877
Rp878
tp879
a(g227
g6
(g18
S'E&}?'
p880
tp881
Rp882
tp883
a(g34
g6
(g18
S'\x87<z?'
p884
tp885
Rp886
tp887
a(g6
(g10
S'\xc9\x07\x00\x00\x00\x00\x00\x00'
p888
tp889
Rp890
g6
(g18
S'\xee\xa3x?'
p891
tp892
Rp893
tp894
a(g6
(g10
S'\xf5\x00\x00\x00\x00\x00\x00\x00'
p895
tp896
Rp897
g6
(g18
S'B\xcas?'
p898
tp899
Rp900
tp901
as(I25
I3
I10
tp902
(lp903
(g6
(g10
S'\xe8\x07\x00\x00\x00\x00\x00\x00'
p904
tp905
Rp906
g6
(g18
S'\x00\x00\x80?'
p907
tp908
Rp909
tp910
a(g15
g6
(g18
S'\xff\xff\x7f?'
p911
tp912
Rp913
tp914
a(g6
(g10
S'\x9a\x02\x00\x00\x00\x00\x00\x00'
p915
tp916
Rp917
g6
(g18
S'\xff\xff\x7f?'
p918
tp919
Rp920
tp921
a(g6
(g10
S'\x85\x07\x00\x00\x00\x00\x00\x00'
p922
tp923
Rp924
g6
(g18
S'\xff\xff\x7f?'
p925
tp926
Rp927
tp928
a(g34
g6
(g18
S'\xfe\xff\x7f?'
p929
tp930
Rp931
tp932
as(I18
I10
g88
tp933
(lp934
(g15
g6
(g18
S'\x00\x00\x80?'
p935
tp936
Rp937
tp938
a(g131
g6
(g18
S'h5\x7f?'
p939
tp940
Rp941
tp942
a(g6
(g10
S'\xbf\x05\x00\x00\x00\x00\x00\x00'
p943
tp944
Rp945
g6
(g18
S'\xb0\xa8~?'
p946
tp947
Rp948
tp949
a(g227
g6
(g18
S'\xbe\x88~?'
p950
tp951
Rp952
tp953
a(g6
(g10
S'\xd6\x04\x00\x00\x00\x00\x00\x00'
p954
tp955
Rp956
g6
(g18
S'\xb4p~?'
p957
tp958
Rp959
tp960
as(I25
g88
I1
tp961
(lp962
(g15
g6
(g18
S'\x00\x00\x80?'
p963
tp964
Rp965
tp966
a(g481
g6
(g18
S'7J{?'
p967
tp968
Rp969
tp970
a(g34
g6
(g18
S'\xbenx?'
p971
tp972
Rp973
tp974
a(g248
g6
(g18
S'4\xfaq?'
p975
tp976
Rp977
tp978
a(g897
g6
(g18
S'\xd4\xb0q?'
p979
tp980
Rp981
tp982
as(I18
I3
I3
tp983
(lp984
(g15
g6
(g18
S'\x00\x00\x80?'
p985
tp986
Rp987
tp988
a(g638
g6
(g18
S'*\xb8\x7f?'
p989
tp990
Rp991
tp992
a(g427
g6
(g18
S')\xa4\x7f?'
p993
tp994
Rp995
tp996
a(g6
(g10
S'\x8d\x02\x00\x00\x00\x00\x00\x00'
p997
tp998
Rp999
g6
(g18
S'\xd4n\x7f?'
p1000
tp1001
Rp1002
tp1003
a(g6
(g10
S'\xe2\x05\x00\x00\x00\x00\x00\x00'
p1004
tp1005
Rp1006
g6
(g18
S'\nb\x7f?'
p1007
tp1008
Rp1009
tp1010
as(I20
I10
g88
tp1011
(lp1012
(g15
g6
(g18
S'\x00\x00\x80?'
p1013
tp1014
Rp1015
tp1016
a(g434
g6
(g18
S'\xe1\xbb\x7f?'
p1017
tp1018
Rp1019
tp1020
a(g6
(g10
S'\xa7\x06\x00\x00\x00\x00\x00\x00'
p1021
tp1022
Rp1023
g6
(g18
S'R\x91\x7f?'
p1024
tp1025
Rp1026
tp1027
a(g83
g6
(g18
S'\x88\x82\x7f?'
p1028
tp1029
Rp1030
tp1031
a(g793
g6
(g18
S'\xb8R\x7f?'
p1032
tp1033
Rp1034
tp1035
as(I40
g53
F0.3
tp1036
(lp1037
(g15
g6
(g18
S'\xfe\xff\x7f?'
p1038
tp1039
Rp1040
tp1041
a(g131
g6
(g18
S'\x1a\x0et?'
p1042
tp1043
Rp1044
tp1045
a(g890
g6
(g18
S'\xb09r?'
p1046
tp1047
Rp1048
tp1049
a(g414
g6
(g18
S'{\tr?'
p1050
tp1051
Rp1052
tp1053
a(g6
(g10
S'j\x01\x00\x00\x00\x00\x00\x00'
p1054
tp1055
Rp1056
g6
(g18
S'\x12\xfam?'
p1057
tp1058
Rp1059
tp1060
as(I18
I10
I1
tp1061
(lp1062
(g15
g6
(g18
S'\x00\x00\x80?'
p1063
tp1064
Rp1065
tp1066
a(g6
(g10
S'C\x04\x00\x00\x00\x00\x00\x00'
p1067
tp1068
Rp1069
g6
(g18
S'\xab@|?'
p1070
tp1071
Rp1072
tp1073
a(g131
g6
(g18
S'4\x00|?'
p1074
tp1075
Rp1076
tp1077
a(g396
g6
(g18
S'\x86\xfd{?'
p1078
tp1079
Rp1080
tp1081
a(g6
(g10
S'\xd9\x01\x00\x00\x00\x00\x00\x00'
p1082
tp1083
Rp1084
g6
(g18
S'\x9b\xef{?'
p1085
tp1086
Rp1087
tp1088
as(I25
g88
g88
tp1089
(lp1090
(g15
g6
(g18
S'\x00\x00\x80?'
p1091
tp1092
Rp1093
tp1094
a(g76
g6
(g18
S'\xf2\xc7c?'
p1095
tp1096
Rp1097
tp1098
a(g481
g6
(g18
S'e\xb1a?'
p1099
tp1100
Rp1101
tp1102
a(g6
(g10
S'h\x03\x00\x00\x00\x00\x00\x00'
p1103
tp1104
Rp1105
g6
(g18
S'\xe4\\]?'
p1106
tp1107
Rp1108
tp1109
a(g27
g6
(g18
S'\xa4\x01]?'
p1110
tp1111
Rp1112
tp1113
as(I18
g53
g88
tp1114
(lp1115
(g15
g6
(g18
S'\x00\x00\x80?'
p1116
tp1117
Rp1118
tp1119
a(g6
(g10
S'O\x02\x00\x00\x00\x00\x00\x00'
p1120
tp1121
Rp1122
g6
(g18
S'\xcd@q?'
p1123
tp1124
Rp1125
tp1126
a(g6
(g10
S'?\x01\x00\x00\x00\x00\x00\x00'
p1127
tp1128
Rp1129
g6
(g18
S'\x06qp?'
p1130
tp1131
Rp1132
tp1133
a(g6
(g10
S'\xe6\x00\x00\x00\x00\x00\x00\x00'
p1134
tp1135
Rp1136
g6
(g18
S'\x00\x0co?'
p1137
tp1138
Rp1139
tp1140
a(g371
g6
(g18
S'\x06\x07o?'
p1141
tp1142
Rp1143
tp1144
as(I25
g88
I3
tp1145
(lp1146
(g339
g6
(g18
S'\x00\x00\x80?'
p1147
tp1148
Rp1149
tp1150
a(g58
g6
(g18
S'\x00\x00\x80?'
p1151
tp1152
Rp1153
tp1154
a(g65
g6
(g18
S'\x00\x00\x80?'
p1155
tp1156
Rp1157
tp1158
a(g354
g6
(g18
S'\x00\x00\x80?'
p1159
tp1160
Rp1161
tp1162
a(g15
g6
(g18
S'\x00\x00\x80?'
p1163
tp1164
Rp1165
tp1166
as(I18
g53
I1
tp1167
(lp1168
(g15
g6
(g18
S'\x00\x00\x80?'
p1169
tp1170
Rp1171
tp1172
a(g6
(g10
S'\x01\x05\x00\x00\x00\x00\x00\x00'
p1173
tp1174
Rp1175
g6
(g18
S'\x80\xde\x7f?'
p1176
tp1177
Rp1178
tp1179
a(g65
g6
(g18
S'\x97\xbe\x7f?'
p1180
tp1181
Rp1182
tp1183
a(g76
g6
(g18
S'\x97\xbe\x7f?'
p1184
tp1185
Rp1186
tp1187
a(g638
g6
(g18
S'\x97\xbe\x7f?'
p1188
tp1189
Rp1190
tp1191
as(I30
g88
I10
tp1192
(lp1193
(g15
g6
(g18
S'\x00\x00\x80?'
p1194
tp1195
Rp1196
tp1197
a(g6
(g10
S'B\x01\x00\x00\x00\x00\x00\x00'
p1198
tp1199
Rp1200
g6
(g18
S'\x00\x00\x80?'
p1201
tp1202
Rp1203
tp1204
a(g354
g6
(g18
S'\xf9\xff\x7f?'
p1205
tp1206
Rp1207
tp1208
a(g6
(g10
S'\xae\x05\x00\x00\x00\x00\x00\x00'
p1209
tp1210
Rp1211
g6
(g18
S'\xd0\xff\x7f?'
p1212
tp1213
Rp1214
tp1215
a(g588
g6
(g18
S'|\xff\x7f?'
p1216
tp1217
Rp1218
tp1219
as(I40
g278
I10
tp1220
(lp1221
(g15
g6
(g18
S'\x00\x00\x80?'
p1222
tp1223
Rp1224
tp1225
a(g6
(g10
S'\xdf\x07\x00\x00\x00\x00\x00\x00'
p1226
tp1227
Rp1228
g6
(g18
S'\xf3\xff\x7f?'
p1229
tp1230
Rp1231
tp1232
a(g651
g6
(g18
S'\xef\xff\x7f?'
p1233
tp1234
Rp1235
tp1236
a(g6
(g10
S'g\x01\x00\x00\x00\x00\x00\x00'
p1237
tp1238
Rp1239
g6
(g18
S'\x98\xff\x7f?'
p1240
tp1241
Rp1242
tp1243
a(g6
(g10
S'\r\x01\x00\x00\x00\x00\x00\x00'
p1244
tp1245
Rp1246
g6
(g18
S'\x9e\xfe\x7f?'
p1247
tp1248
Rp1249
tp1250
as(I40
I1
I10
tp1251
(lp1252
(g536
g6
(g18
S'\x00\x00\x80?'
p1253
tp1254
Rp1255
tp1256
a(g6
(g10
S'#\x00\x00\x00\x00\x00\x00\x00'
p1257
tp1258
Rp1259
g6
(g18
S'\x00\x00\x80?'
p1260
tp1261
Rp1262
tp1263
a(g6
(g10
S'.\x00\x00\x00\x00\x00\x00\x00'
p1264
tp1265
Rp1266
g6
(g18
S'\x00\x00\x80?'
p1267
tp1268
Rp1269
tp1270
a(g58
g6
(g18
S'\x00\x00\x80?'
p1271
tp1272
Rp1273
tp1274
a(g65
g6
(g18
S'\x00\x00\x80?'
p1275
tp1276
Rp1277
tp1278
as(I40
I3
I3
tp1279
(lp1280
(g15
g6
(g18
S'\xfa\xff\x7f?'
p1281
tp1282
Rp1283
tp1284
a(g434
g6
(g18
S'\xee\x98\x7f?'
p1285
tp1286
Rp1287
tp1288
a(g6
(g10
S'\xc6\x04\x00\x00\x00\x00\x00\x00'
p1289
tp1290
Rp1291
g6
(g18
S'\x004\x7f?'
p1292
tp1293
Rp1294
tp1295
a(g6
(g10
S'\xfa\x02\x00\x00\x00\x00\x00\x00'
p1296
tp1297
Rp1298
g6
(g18
S']#\x7f?'
p1299
tp1300
Rp1301
tp1302
a(g6
(g10
S'\xbc\x06\x00\x00\x00\x00\x00\x00'
p1303
tp1304
Rp1305
g6
(g18
S'0"\x7f?'
p1306
tp1307
Rp1308
tp1309
as(I18
g53
I3
tp1310
(lp1311
(g339
g6
(g18
S'\x00\x00\x80?'
p1312
tp1313
Rp1314
tp1315
a(g58
g6
(g18
S'\x00\x00\x80?'
p1316
tp1317
Rp1318
tp1319
a(g65
g6
(g18
S'\x00\x00\x80?'
p1320
tp1321
Rp1322
tp1323
a(g354
g6
(g18
S'\x00\x00\x80?'
p1324
tp1325
Rp1326
tp1327
a(g15
g6
(g18
S'\x00\x00\x80?'
p1328
tp1329
Rp1330
tp1331
as(I20
g88
I1
tp1332
(lp1333
(g15
g6
(g18
S'\x00\x00\x80?'
p1334
tp1335
Rp1336
tp1337
a(g326
g6
(g18
S'\xb3\xe6{?'
p1338
tp1339
Rp1340
tp1341
a(g516
g6
(g18
S"'\x16y?"
p1342
tp1343
Rp1344
tp1345
a(g131
g6
(g18
S'\xde\xe2x?'
p1346
tp1347
Rp1348
tp1349
a(g6
(g10
S'\x80\x04\x00\x00\x00\x00\x00\x00'
p1350
tp1351
Rp1352
g6
(g18
S'\xf5\xb4w?'
p1353
tp1354
Rp1355
tp1356
as(I40
I3
g88
tp1357
(lp1358
(g15
g6
(g18
S'\xfe\xff\x7f?'
p1359
tp1360
Rp1361
tp1362
a(g27
g6
(g18
S'\xde\xd6[?'
p1363
tp1364
Rp1365
tp1366
a(g6
(g10
S'~\x04\x00\x00\x00\x00\x00\x00'
p1367
tp1368
Rp1369
g6
(g18
S'\xe5\xceQ?'
p1370
tp1371
Rp1372
tp1373
a(g227
g6
(g18
S'\x13<Q?'
p1374
tp1375
Rp1376
tp1377
a(g76
g6
(g18
S'\xf7FO?'
p1378
tp1379
Rp1380
tp1381
as(I20
g88
g88
tp1382
(lp1383
(g15
g6
(g18
S'\x00\x00\x80?'
p1384
tp1385
Rp1386
tp1387
a(g34
g6
(g18
S'<\xfdy?'
p1388
tp1389
Rp1390
tp1391
a(g326
g6
(g18
S'\xc5\x8dw?'
p1392
tp1393
Rp1394
tp1395
a(g319
g6
(g18
S'\xa9\xefm?'
p1396
tp1397
Rp1398
tp1399
a(g492
g6
(g18
S')\xf9j?'
p1400
tp1401
Rp1402
tp1403
as(I40
I3
I1
tp1404
(lp1405
(g15
g6
(g18
S'\xfe\xff\x7f?'
p1406
tp1407
Rp1408
tp1409
a(g227
g6
(g18
S'L(~?'
p1410
tp1411
Rp1412
tp1413
a(g481
g6
(g18
S'\xfe\xa8t?'
p1414
tp1415
Rp1416
tp1417
a(g6
(g10
S'u\x03\x00\x00\x00\x00\x00\x00'
p1418
tp1419
Rp1420
g6
(g18
S'\xe8\xecs?'
p1421
tp1422
Rp1423
tp1424
a(g241
g6
(g18
S'\x9a\xbas?'
p1425
tp1426
Rp1427
tp1428
as(I18
g278
F0.3
tp1429
(lp1430
(g15
g6
(g18
S'\x00\x00\x80?'
p1431
tp1432
Rp1433
tp1434
a(g1129
g6
(g18
S'\xaf\x9dq?'
p1435
tp1436
Rp1437
tp1438
a(g183
g6
(g18
S'\x87;n?'
p1439
tp1440
Rp1441
tp1442
a(g176
g6
(g18
S'h\x05i?'
p1443
tp1444
Rp1445
tp1446
a(g149
g6
(g18
S'q\xc0h?'
p1447
tp1448
Rp1449
tp1450
as(I20
g88
I3
tp1451
(lp1452
(g339
g6
(g18
S'\x00\x00\x80?'
p1453
tp1454
Rp1455
tp1456
a(g58
g6
(g18
S'\x00\x00\x80?'
p1457
tp1458
Rp1459
tp1460
a(g65
g6
(g18
S'\x00\x00\x80?'
p1461
tp1462
Rp1463
tp1464
a(g15
g6
(g18
S'\x00\x00\x80?'
p1465
tp1466
Rp1467
tp1468
a(g76
g6
(g18
S'\x00\x00\x80?'
p1469
tp1470
Rp1471
tp1472
as(I30
g278
I10
tp1473
(lp1474
(g529
g6
(g18
S'\x00\x00\x80?'
p1475
tp1476
Rp1477
tp1478
a(g536
g6
(g18
S'\x00\x00\x80?'
p1479
tp1480
Rp1481
tp1482
a(g543
g6
(g18
S'\x00\x00\x80?'
p1483
tp1484
Rp1485
tp1486
a(g550
g6
(g18
S'\x00\x00\x80?'
p1487
tp1488
Rp1489
tp1490
a(g557
g6
(g18
S'\x00\x00\x80?'
p1491
tp1492
Rp1493
tp1494
as(I10
I1
F0.3
tp1495
(lp1496
s(I40
I10
g88
tp1497
(lp1498
(g6
(g10
S'V\x00\x00\x00\x00\x00\x00\x00'
p1499
tp1500
Rp1501
g6
(g18
S'\x01\x00\x80?'
p1502
tp1503
Rp1504
tp1505
a(g6
(g10
S'\x01\x00\x00\x00\x00\x00\x00\x00'
p1506
tp1507
Rp1508
g6
(g18
S'\x00\x00\x80?'
p1509
tp1510
Rp1511
tp1512
a(g6
(g10
S'\x02\x00\x00\x00\x00\x00\x00\x00'
p1513
tp1514
Rp1515
g6
(g18
S'\x00\x00\x80?'
p1516
tp1517
Rp1518
tp1519
a(g6
(g10
S'\x03\x00\x00\x00\x00\x00\x00\x00'
p1520
tp1521
Rp1522
g6
(g18
S'\x00\x00\x80?'
p1523
tp1524
Rp1525
tp1526
a(g6
(g10
S'\x04\x00\x00\x00\x00\x00\x00\x00'
p1527
tp1528
Rp1529
g6
(g18
S'\x00\x00\x80?'
p1530
tp1531
Rp1532
tp1533
as(I25
g278
I3
tp1534
(lp1535
(g339
g6
(g18
S'\x00\x00\x80?'
p1536
tp1537
Rp1538
tp1539
a(g65
g6
(g18
S'\x00\x00\x80?'
p1540
tp1541
Rp1542
tp1543
a(g15
g6
(g18
S'\x00\x00\x80?'
p1544
tp1545
Rp1546
tp1547
a(g76
g6
(g18
S'\x00\x00\x80?'
p1548
tp1549
Rp1550
tp1551
a(g83
g6
(g18
S'\x00\x00\x80?'
p1552
tp1553
Rp1554
tp1555
as(I25
g278
I1
tp1556
(lp1557
(g15
g6
(g18
S'\x00\x00\x80?'
p1558
tp1559
Rp1560
tp1561
a(g6
(g10
S'Z\x05\x00\x00\x00\x00\x00\x00'
p1562
tp1563
Rp1564
g6
(g18
S'\xe2\x13\x7f?'
p1565
tp1566
Rp1567
tp1568
a(g1129
g6
(g18
S'\x1d\xb8}?'
p1569
tp1570
Rp1571
tp1572
a(g481
g6
(g18
S'\xbc\x03z?'
p1573
tp1574
Rp1575
tp1576
a(g890
g6
(g18
S'\x88\xa1x?'
p1577
tp1578
Rp1579
tp1580
as(I25
g53
F0.3
tp1581
(lp1582
(g15
g6
(g18
S'\x00\x00\x80?'
p1583
tp1584
Rp1585
tp1586
a(g234
g6
(g18
S'|,}?'
p1587
tp1588
Rp1589
tp1590
a(g319
g6
(g18
S' \xdf|?'
p1591
tp1592
Rp1593
tp1594
a(g34
g6
(g18
S'-\x83|?'
p1595
tp1596
Rp1597
tp1598
a(g326
g6
(g18
S'3\xd3y?'
p1599
tp1600
Rp1601
tp1602
as(I40
g88
I1
tp1603
(lp1604
(g15
g6
(g18
S'\x00\x00\x80?'
p1605
tp1606
Rp1607
tp1608
a(g227
g6
(g18
S'g\x8d\x7f?'
p1609
tp1610
Rp1611
tp1612
a(g65
g6
(g18
S'\xa8\xd4}?'
p1613
tp1614
Rp1615
tp1616
a(g326
g6
(g18
S'\x7f\r}?'
p1617
tp1618
Rp1619
tp1620
a(g131
g6
(g18
S'\xbd+|?'
p1621
tp1622
Rp1623
tp1624
as(I25
g278
F0.3
tp1625
(lp1626
(g15
g6
(g18
S'\x00\x00\x80?'
p1627
tp1628
Rp1629
tp1630
a(g183
g6
(g18
S'\xcd\x91r?'
p1631
tp1632
Rp1633
tp1634
a(g481
g6
(g18
S'\x989b?'
p1635
tp1636
Rp1637
tp1638
a(g138
g6
(g18
S'\x94=Z?'
p1639
tp1640
Rp1641
tp1642
a(g414
g6
(g18
S'8\x86U?'
p1643
tp1644
Rp1645
tp1646
as(I30
I3
I10
tp1647
(lp1648
(g6
(g10
S'\xbf\x07\x00\x00\x00\x00\x00\x00'
p1649
tp1650
Rp1651
g6
(g18
S'\x01\x00\x80?'
p1652
tp1653
Rp1654
tp1655
a(g15
g6
(g18
S'\x00\x00\x80?'
p1656
tp1657
Rp1658
tp1659
a(g6
(g10
S'\xe1\x03\x00\x00\x00\x00\x00\x00'
p1660
tp1661
Rp1662
g6
(g18
S'\x00\x00\x80?'
p1663
tp1664
Rp1665
tp1666
a(g6
(g10
S'\xc0\x04\x00\x00\x00\x00\x00\x00'
p1667
tp1668
Rp1669
g6
(g18
S'\x00\x00\x80?'
p1670
tp1671
Rp1672
tp1673
a(g1291
g6
(g18
S'\x00\x00\x80?'
p1674
tp1675
Rp1676
tp1677
as(I30
I1
I3
tp1678
(lp1679
(g15
g6
(g18
S'\x01\x00\x80?'
p1680
tp1681
Rp1682
tp1683
a(g6
(g10
S'*\x05\x00\x00\x00\x00\x00\x00'
p1684
tp1685
Rp1686
g6
(g18
S'\x1b\xdc\x7f?'
p1687
tp1688
Rp1689
tp1690
a(g725
g6
(g18
S'\xb8\xdb\x7f?'
p1691
tp1692
Rp1693
tp1694
a(g793
g6
(g18
S'\xe7\xd8\x7f?'
p1695
tp1696
Rp1697
tp1698
a(g6
(g10
S'?\x05\x00\x00\x00\x00\x00\x00'
p1699
tp1700
Rp1701
g6
(g18
S'\xcf\xd7\x7f?'
p1702
tp1703
Rp1704
tp1705
as(I20
g53
I3
tp1706
(lp1707
(g339
g6
(g18
S'\x00\x00\x80?'
p1708
tp1709
Rp1710
tp1711
a(g65
g6
(g18
S'\x00\x00\x80?'
p1712
tp1713
Rp1714
tp1715
a(g354
g6
(g18
S'\x00\x00\x80?'
p1716
tp1717
Rp1718
tp1719
a(g15
g6
(g18
S'\x00\x00\x80?'
p1720
tp1721
Rp1722
tp1723
a(g76
g6
(g18
S'\x00\x00\x80?'
p1724
tp1725
Rp1726
tp1727
as(I40
g88
I3
tp1728
(lp1729
(g339
g6
(g18
S'\x00\x00\x80?'
p1730
tp1731
Rp1732
tp1733
a(g203
g6
(g18
S'\x00\x00\x80?'
p1734
tp1735
Rp1736
tp1737
a(g6
(g10
S'1\x00\x00\x00\x00\x00\x00\x00'
p1738
tp1739
Rp1740
g6
(g18
S'\x00\x00\x80?'
p1741
tp1742
Rp1743
tp1744
a(g65
g6
(g18
S'\x00\x00\x80?'
p1745
tp1746
Rp1747
tp1748
a(g15
g6
(g18
S'\x00\x00\x80?'
p1749
tp1750
Rp1751
tp1752
as(I25
g53
I10
tp1753
(lp1754
(g529
g6
(g18
S'\x00\x00\x80?'
p1755
tp1756
Rp1757
tp1758
a(g536
g6
(g18
S'\x00\x00\x80?'
p1759
tp1760
Rp1761
tp1762
a(g543
g6
(g18
S'\x00\x00\x80?'
p1763
tp1764
Rp1765
tp1766
a(g550
g6
(g18
S'\x00\x00\x80?'
p1767
tp1768
Rp1769
tp1770
a(g557
g6
(g18
S'\x00\x00\x80?'
p1771
tp1772
Rp1773
tp1774
as(I30
I1
I1
tp1775
(lp1776
(g15
g6
(g18
S'\xff\xff\x7f?'
p1777
tp1778
Rp1779
tp1780
a(g183
g6
(g18
S'\xb9ow?'
p1781
tp1782
Rp1783
tp1784
a(g481
g6
(g18
S'!\x97v?'
p1785
tp1786
Rp1787
tp1788
a(g1129
g6
(g18
S'\x91\x00v?'
p1789
tp1790
Rp1791
tp1792
a(g6
(g10
S'\xa6\x07\x00\x00\x00\x00\x00\x00'
p1793
tp1794
Rp1795
g6
(g18
S'l\xf3t?'
p1796
tp1797
Rp1798
tp1799
as(I20
g53
I1
tp1800
(lp1801
(g15
g6
(g18
S'\x00\x00\x80?'
p1802
tp1803
Rp1804
tp1805
a(g65
g6
(g18
S'F\xde\x7f?'
p1806
tp1807
Rp1808
tp1809
a(g34
g6
(g18
S'F\xde\x7f?'
p1810
tp1811
Rp1812
tp1813
a(g638
g6
(g18
S'F\xde\x7f?'
p1814
tp1815
Rp1816
tp1817
a(g658
g6
(g18
S'F\xde\x7f?'
p1818
tp1819
Rp1820
tp1821
as(I20
I3
g88
tp1822
(lp1823
(g15
g6
(g18
S'\xff\xff\x7f?'
p1824
tp1825
Rp1826
tp1827
a(g131
g6
(g18
S'\x917r?'
p1828
tp1829
Rp1830
tp1831
a(g481
g6
(g18
S'\x95\xffm?'
p1832
tp1833
Rp1834
tp1835
a(g48
g6
(g18
S'rnm?'
p1836
tp1837
Rp1838
tp1839
a(g613
g6
(g18
S'\x03ij?'
p1840
tp1841
Rp1842
tp1843
as(I40
g88
F0.3
tp1844
(lp1845
(g15
g6
(g18
S'\x00\x00\x80?'
p1846
tp1847
Rp1848
tp1849
a(g34
g6
(g18
S'\xda\x9c~?'
p1850
tp1851
Rp1852
tp1853
a(g319
g6
(g18
S'\x12\xea|?'
p1854
tp1855
Rp1856
tp1857
a(g227
g6
(g18
S'\x98\x92{?'
p1858
tp1859
Rp1860
tp1861
a(g658
g6
(g18
S'\xc8Z{?'
p1862
tp1863
Rp1864
tp1865
as(I18
g53
F0.3
tp1866
(lp1867
(g15
g6
(g18
S'\x00\x00\x80?'
p1868
tp1869
Rp1870
tp1871
a(g6
(g10
S'\x01\x07\x00\x00\x00\x00\x00\x00'
p1872
tp1873
Rp1874
g6
(g18
S'\xbd$}?'
p1875
tp1876
Rp1877
tp1878
a(g65
g6
(g18
S'\xe0\xf2{?'
p1879
tp1880
Rp1881
tp1882
a(g6
(g10
S'\xae\x01\x00\x00\x00\x00\x00\x00'
p1883
tp1884
Rp1885
g6
(g18
S'\x1a!{?'
p1886
tp1887
Rp1888
tp1889
a(g782
g6
(g18
S'\x04\xfbz?'
p1890
tp1891
Rp1892
tp1893
as(I30
I1
F0.3
tp1894
(lp1895
(g15
g6
(g18
S'\xfc\xff\x7f?'
p1896
tp1897
Rp1898
tp1899
a(g34
g6
(g18
S'\x044r?'
p1900
tp1901
Rp1902
tp1903
a(g227
g6
(g18
S'\xd0\x04k?'
p1904
tp1905
Rp1906
tp1907
a(g1129
g6
(g18
S'\xde\x83j?'
p1908
tp1909
Rp1910
tp1911
a(g6
(g10
S'\xd3\x05\x00\x00\x00\x00\x00\x00'
p1912
tp1913
Rp1914
g6
(g18
S'.\xe5i?'
p1915
tp1916
Rp1917
tp1918
as(I20
I10
I1
tp1919
(lp1920
(g15
g6
(g18
S'\x00\x00\x80?'
p1921
tp1922
Rp1923
tp1924
a(g613
g6
(g18
S'hYz?'
p1925
tp1926
Rp1927
tp1928
a(g183
g6
(g18
S'\x95\x9dy?'
p1929
tp1930
Rp1931
tp1932
a(g131
g6
(g18
S'\xc4Zy?'
p1933
tp1934
Rp1935
tp1936
a(g149
g6
(g18
S'\xc7\x93w?'
p1937
tp1938
Rp1939
tp1940
as(I25
I1
g88
tp1941
(lp1942
(g15
g6
(g18
S'\x00\x00\x80?'
p1943
tp1944
Rp1945
tp1946
a(g34
g6
(g18
S'(\xa8p?'
p1947
tp1948
Rp1949
tp1950
a(g481
g6
(g18
S'`\xd8o?'
p1951
tp1952
Rp1953
tp1954
a(g414
g6
(g18
S'\xcc)o?'
p1955
tp1956
Rp1957
tp1958
a(g403
g6
(g18
S'\xb4\x8dl?'
p1959
tp1960
Rp1961
tp1962
as(I25
I1
I1
tp1963
(lp1964
(g15
g6
(g18
S'\x00\x00\x80?'
p1965
tp1966
Rp1967
tp1968
a(g34
g6
(g18
S'J\xa1|?'
p1969
tp1970
Rp1971
tp1972
a(g1914
g6
(g18
S'(Ns?'
p1973
tp1974
Rp1975
tp1976
a(g27
g6
(g18
S'\x84\xd4q?'
p1977
tp1978
Rp1979
tp1980
a(g6
(g10
S'\xc4\x03\x00\x00\x00\x00\x00\x00'
p1981
tp1982
Rp1983
g6
(g18
S'\xb1>q?'
p1984
tp1985
Rp1986
tp1987
as(I20
I10
I3
tp1988
(lp1989
(g15
g6
(g18
S'\x00\x00\x80?'
p1990
tp1991
Rp1992
tp1993
a(g227
g6
(g18
S'\x00_~?'
p1994
tp1995
Rp1996
tp1997
a(g6
(g10
S'\xde\x07\x00\x00\x00\x00\x00\x00'
p1998
tp1999
Rp2000
g6
(g18
S'&L}?'
p2001
tp2002
Rp2003
tp2004
a(g131
g6
(g18
S'\xd4\x18|?'
p2005
tp2006
Rp2007
tp2008
a(g613
g6
(g18
S'\xde\x02|?'
p2009
tp2010
Rp2011
tp2012
as(I30
g53
I10
tp2013
(lp2014
(g529
g6
(g18
S'\x00\x00\x80?'
p2015
tp2016
Rp2017
tp2018
a(g536
g6
(g18
S'\x00\x00\x80?'
p2019
tp2020
Rp2021
tp2022
a(g543
g6
(g18
S'\x00\x00\x80?'
p2023
tp2024
Rp2025
tp2026
a(g550
g6
(g18
S'\x00\x00\x80?'
p2027
tp2028
Rp2029
tp2030
a(g557
g6
(g18
S'\x00\x00\x80?'
p2031
tp2032
Rp2033
tp2034
as(I40
g53
I3
tp2035
(lp2036
(g339
g6
(g18
S'\x00\x00\x80?'
p2037
tp2038
Rp2039
tp2040
a(g58
g6
(g18
S'\x00\x00\x80?'
p2041
tp2042
Rp2043
tp2044
a(g65
g6
(g18
S'\x00\x00\x80?'
p2045
tp2046
Rp2047
tp2048
a(g354
g6
(g18
S'\x00\x00\x80?'
p2049
tp2050
Rp2051
tp2052
a(g15
g6
(g18
S'\x00\x00\x80?'
p2053
tp2054
Rp2055
tp2056
as(I25
I1
I3
tp2057
(lp2058
(g15
g6
(g18
S'\x00\x00\x80?'
p2059
tp2060
Rp2061
tp2062
a(g83
g6
(g18
S'\x93\xfd\x7f?'
p2063
tp2064
Rp2065
tp2066
a(g793
g6
(g18
S'\xbe\xf8\x7f?'
p2067
tp2068
Rp2069
tp2070
a(g6
(g10
S'\x88\x04\x00\x00\x00\x00\x00\x00'
p2071
tp2072
Rp2073
g6
(g18
S'#\xf6\x7f?'
p2074
tp2075
Rp2076
tp2077
a(g427
g6
(g18
S'\xb6\xf2\x7f?'
p2078
tp2079
Rp2080
tp2081
as(I18
g278
I10
tp2082
(lp2083
(g529
g6
(g18
S'\x00\x00\x80?'
p2084
tp2085
Rp2086
tp2087
a(g536
g6
(g18
S'\x00\x00\x80?'
p2088
tp2089
Rp2090
tp2091
a(g550
g6
(g18
S'\x00\x00\x80?'
p2092
tp2093
Rp2094
tp2095
a(g557
g6
(g18
S'\x00\x00\x80?'
p2096
tp2097
Rp2098
tp2099
a(g844
g6
(g18
S'\x00\x00\x80?'
p2100
tp2101
Rp2102
tp2103
as(I40
g53
g88
tp2104
(lp2105
(g15
g6
(g18
S'\xff\xff\x7f?'
p2106
tp2107
Rp2108
tp2109
a(g227
g6
(g18
S'b\xf2p?'
p2110
tp2111
Rp2112
tp2113
a(g27
g6
(g18
S'\x99\xb1C?'
p2114
tp2115
Rp2116
tp2117
a(g6
(g10
S'\xbe\x07\x00\x00\x00\x00\x00\x00'
p2118
tp2119
Rp2120
g6
(g18
S'\x18\x107?'
p2121
tp2122
Rp2123
tp2124
a(g149
g6
(g18
S'zw2?'
p2125
tp2126
Rp2127
tp2128
as(I18
I10
F0.3
tp2129
(lp2130
(g15
g6
(g18
S'\x00\x00\x80?'
p2131
tp2132
Rp2133
tp2134
a(g1105
g6
(g18
S"r'y?"
p2135
tp2136
Rp2137
tp2138
a(g6
(g10
S'\x13\x00\x00\x00\x00\x00\x00\x00'
p2139
tp2140
Rp2141
g6
(g18
S'\xee\x98w?'
p2142
tp2143
Rp2144
tp2145
a(g241
g6
(g18
S'd\x0bw?'
p2146
tp2147
Rp2148
tp2149
a(g481
g6
(g18
S'7\x08w?'
p2150
tp2151
Rp2152
tp2153
as(I40
g53
I1
tp2154
(lp2155
(g15
g6
(g18
S'\x00\x00\x80?'
p2156
tp2157
Rp2158
tp2159
a(g58
g6
(g18
S'1A~?'
p2160
tp2161
Rp2162
tp2163
a(g6
(g10
S'^\x02\x00\x00\x00\x00\x00\x00'
p2164
tp2165
Rp2166
g6
(g18
S'\xf0\x16~?'
p2167
tp2168
Rp2169
tp2170
a(g1122
g6
(g18
S'\xa6\x00~?'
p2171
tp2172
Rp2173
tp2174
a(g6
(g10
S'\xc0\x07\x00\x00\x00\x00\x00\x00'
p2175
tp2176
Rp2177
g6
(g18
S'\xeb\xfd}?'
p2178
tp2179
Rp2180
tp2181
as(I20
I1
g88
tp2182
(lp2183
(g15
g6
(g18
S'\x00\x00\x80?'
p2184
tp2185
Rp2186
tp2187
a(g6
(g10
S'\x07\x00\x00\x00\x00\x00\x00\x00'
p2188
tp2189
Rp2190
g6
(g18
S'\x06\x02q?'
p2191
tp2192
Rp2193
tp2194
a(g183
g6
(g18
S'?-p?'
p2195
tp2196
Rp2197
tp2198
a(g6
(g10
S'\x9c\x08\x00\x00\x00\x00\x00\x00'
p2199
tp2200
Rp2201
g6
(g18
S'l\xddm?'
p2202
tp2203
Rp2204
tp2205
a(g481
g6
(g18
S'\x82@m?'
p2206
tp2207
Rp2208
tp2209
as(I20
I1
I1
tp2210
(lp2211
(g15
g6
(g18
S'\x00\x00\x80?'
p2212
tp2213
Rp2214
tp2215
a(g1129
g6
(g18
S'\xfc\x93r?'
p2216
tp2217
Rp2218
tp2219
a(g169
g6
(g18
S'T\xe1q?'
p2220
tp2221
Rp2222
tp2223
a(g298
g6
(g18
S'\x13\xe9o?'
p2224
tp2225
Rp2226
tp2227
a(g48
g6
(g18
S'*\x9do?'
p2228
tp2229
Rp2230
tp2231
as(I40
I10
I1
tp2232
(lp2233
(g15
g6
(g18
S'\x00\x00\x80?'
p2234
tp2235
Rp2236
tp2237
a(g227
g6
(g18
S'f\x1a\x7f?'
p2238
tp2239
Rp2240
tp2241
a(g6
(g10
S'F\x07\x00\x00\x00\x00\x00\x00'
p2242
tp2243
Rp2244
g6
(g18
S'\xb3\xf8~?'
p2245
tp2246
Rp2247
tp2248
a(g6
(g10
S'r\x02\x00\x00\x00\x00\x00\x00'
p2249
tp2250
Rp2251
g6
(g18
S'\x87\xdb~?'
p2252
tp2253
Rp2254
tp2255
a(g6
(g10
S'\x13\x02\x00\x00\x00\x00\x00\x00'
p2256
tp2257
Rp2258
g6
(g18
S'N\xab~?'
p2259
tp2260
Rp2261
tp2262
as(I20
g278
I3
tp2263
(lp2264
(g58
g6
(g18
S'\x00\x00\x80?'
p2265
tp2266
Rp2267
tp2268
a(g65
g6
(g18
S'\x00\x00\x80?'
p2269
tp2270
Rp2271
tp2272
a(g354
g6
(g18
S'\x00\x00\x80?'
p2273
tp2274
Rp2275
tp2276
a(g15
g6
(g18
S'\x00\x00\x80?'
p2277
tp2278
Rp2279
tp2280
a(g76
g6
(g18
S'\x00\x00\x80?'
p2281
tp2282
Rp2283
tp2284
as(I20
I1
I3
tp2285
(lp2286
(g15
g6
(g18
S'\x00\x00\x80?'
p2287
tp2288
Rp2289
tp2290
a(g6
(g10
S'\xc9\x01\x00\x00\x00\x00\x00\x00'
p2291
tp2292
Rp2293
g6
(g18
S'\x92\xf1\x7f?'
p2294
tp2295
Rp2296
tp2297
a(g83
g6
(g18
S's\xca\x7f?'
p2298
tp2299
Rp2300
tp2301
a(g227
g6
(g18
S'K\xc1\x7f?'
p2302
tp2303
Rp2304
tp2305
a(g999
g6
(g18
S'\x97\x93\x7f?'
p2306
tp2307
Rp2308
tp2309
as(I40
I3
F0.3
tp2310
(lp2311
(g15
g6
(g18
S'\xff\xff\x7f?'
p2312
tp2313
Rp2314
tp2315
a(g27
g6
(g18
S'G\xf1t?'
p2316
tp2317
Rp2318
tp2319
a(g227
g6
(g18
S'\x98\xd3k?'
p2320
tp2321
Rp2322
tp2323
a(g6
(g10
S'\xa9\x03\x00\x00\x00\x00\x00\x00'
p2324
tp2325
Rp2326
g6
(g18
S'\xb4#a?'
p2327
tp2328
Rp2329
tp2330
a(g481
g6
(g18
S'\xa6$]?'
p2331
tp2332
Rp2333
tp2334
as(I40
I10
I3
tp2335
(lp2336
(g15
g6
(g18
S'\x00\x00\x80?'
p2337
tp2338
Rp2339
tp2340
a(g6
(g10
S'\xb6\x02\x00\x00\x00\x00\x00\x00'
p2341
tp2342
Rp2343
g6
(g18
S'\xf6\xff\x7f?'
p2344
tp2345
Rp2346
tp2347
a(g6
(g10
S'\xd6\x02\x00\x00\x00\x00\x00\x00'
p2348
tp2349
Rp2350
g6
(g18
S'\xf4\xff\x7f?'
p2351
tp2352
Rp2353
tp2354
a(g638
g6
(g18
S'\xf2\xff\x7f?'
p2355
tp2356
Rp2357
tp2358
a(g6
(g10
S'S\x04\x00\x00\x00\x00\x00\x00'
p2359
tp2360
Rp2361
g6
(g18
S'\xf0\xff\x7f?'
p2362
tp2363
Rp2364
tp2365
as(I18
I3
I10
tp2366
(lp2367
(g6
(g10
S'Y\x00\x00\x00\x00\x00\x00\x00'
p2368
tp2369
Rp2370
g6
(g18
S'\x00\x00\x80?'
p2371
tp2372
Rp2373
tp2374
a(g6
(g10
S'~\x00\x00\x00\x00\x00\x00\x00'
p2375
tp2376
Rp2377
g6
(g18
S'\x00\x00\x80?'
p2378
tp2379
Rp2380
tp2381
a(g15
g6
(g18
S'\x00\x00\x80?'
p2382
tp2383
Rp2384
tp2385
a(g6
(g10
S'I\x01\x00\x00\x00\x00\x00\x00'
p2386
tp2387
Rp2388
g6
(g18
S'\x00\x00\x80?'
p2389
tp2390
Rp2391
tp2392
a(g6
(g10
S'\xe1\x04\x00\x00\x00\x00\x00\x00'
p2393
tp2394
Rp2395
g6
(g18
S'\x00\x00\x80?'
p2396
tp2397
Rp2398
tp2399
as(I25
I10
F0.3
tp2400
(lp2401
(g15
g6
(g18
S'\x00\x00\x80?'
p2402
tp2403
Rp2404
tp2405
a(g481
g6
(g18
S'\x81*{?'
p2406
tp2407
Rp2408
tp2409
a(g162
g6
(g18
S'\x9f\xe5w?'
p2410
tp2411
Rp2412
tp2413
a(g27
g6
(g18
S'j\xf9v?'
p2414
tp2415
Rp2416
tp2417
a(g227
g6
(g18
S'\x84\xb3t?'
p2418
tp2419
Rp2420
tp2421
as(I25
g278
g88
tp2422
(lp2423
(g15
g6
(g18
S'\xff\xff\x7f?'
p2424
tp2425
Rp2426
tp2427
a(g414
g6
(g18
S'P\x94w?'
p2428
tp2429
Rp2430
tp2431
a(g291
g6
(g18
S'^\xael?'
p2432
tp2433
Rp2434
tp2435
a(g319
g6
(g18
S'\x03\xb2g?'
p2436
tp2437
Rp2438
tp2439
a(g183
g6
(g18
S'q\xefe?'
p2440
tp2441
Rp2442
tp2443
as(I20
g278
I1
tp2444
(lp2445
(g15
g6
(g18
S'\x00\x00\x80?'
p2446
tp2447
Rp2448
tp2449
a(g658
g6
(g18
S'\x93\xc2~?'
p2450
tp2451
Rp2452
tp2453
a(g234
g6
(g18
S'\x93\xc2~?'
p2454
tp2455
Rp2456
tp2457
a(g241
g6
(g18
S'\x93\xc2~?'
p2458
tp2459
Rp2460
tp2461
a(g65
g6
(g18
S'\x01\xbb~?'
p2462
tp2463
Rp2464
tp2465
as(I30
I10
I10
tp2466
(lp2467
(g6
(g10
S'e\x02\x00\x00\x00\x00\x00\x00'
p2468
tp2469
Rp2470
g6
(g18
S'\x00\x00\x80?'
p2471
tp2472
Rp2473
tp2474
a(g6
(g10
S'\xe2\x03\x00\x00\x00\x00\x00\x00'
p2475
tp2476
Rp2477
g6
(g18
S'\x00\x00\x80?'
p2478
tp2479
Rp2480
tp2481
a(g2361
g6
(g18
S'\x00\x00\x80?'
p2482
tp2483
Rp2484
tp2485
a(g15
g6
(g18
S'\xff\xff\x7f?'
p2486
tp2487
Rp2488
tp2489
a(g6
(g10
S'\x89\x01\x00\x00\x00\x00\x00\x00'
p2490
tp2491
Rp2492
g6
(g18
S'\xff\xff\x7f?'
p2493
tp2494
Rp2495
tp2496
as(I18
I3
F0.3
tp2497
(lp2498
(g15
g6
(g18
S'\x00\x00\x80?'
p2499
tp2500
Rp2501
tp2502
a(g131
g6
(g18
S'P\xc0v?'
p2503
tp2504
Rp2505
tp2506
a(g27
g6
(g18
S'\xfc\xc0t?'
p2507
tp2508
Rp2509
tp2510
a(g162
g6
(g18
S'N\x9cr?'
p2511
tp2512
Rp2513
tp2514
a(g1105
g6
(g18
S'&Rm?'
p2515
tp2516
Rp2517
tp2518
as(I30
g53
F0.3
tp2519
(lp2520
(g15
g6
(g18
S'\x01\x00\x80?'
p2521
tp2522
Rp2523
tp2524
a(g111
g6
(g18
S'\xc8\xf6{?'
p2525
tp2526
Rp2527
tp2528
a(g1129
g6
(g18
S'\xc9\x03y?'
p2529
tp2530
Rp2531
tp2532
a(g6
(g10
S'\xcb\x04\x00\x00\x00\x00\x00\x00'
p2533
tp2534
Rp2535
g6
(g18
S'\xb0(x?'
p2536
tp2537
Rp2538
tp2539
a(g1056
g6
(g18
S'\x1f\x04v?'
p2540
tp2541
Rp2542
tp2543
as(I20
g53
I10
tp2544
(lp2545
(g339
g6
(g18
S'\x00\x00\x80?'
p2546
tp2547
Rp2548
tp2549
a(g6
(g10
S'\x15\x00\x00\x00\x00\x00\x00\x00'
p2550
tp2551
Rp2552
g6
(g18
S'\x00\x00\x80?'
p2553
tp2554
Rp2555
tp2556
a(g6
(g10
S'\x16\x00\x00\x00\x00\x00\x00\x00'
p2557
tp2558
Rp2559
g6
(g18
S'\x00\x00\x80?'
p2560
tp2561
Rp2562
tp2563
a(g6
(g10
S'-\x00\x00\x00\x00\x00\x00\x00'
p2564
tp2565
Rp2566
g6
(g18
S'\x00\x00\x80?'
p2567
tp2568
Rp2569
tp2570
a(g1266
g6
(g18
S'\x00\x00\x80?'
p2571
tp2572
Rp2573
tp2574
as(I40
I1
I1
tp2575
(lp2576
(g15
g6
(g18
S'\xff\xff\x7f?'
p2577
tp2578
Rp2579
tp2580
a(g1129
g6
(g18
S'\x04*{?'
p2581
tp2582
Rp2583
tp2584
a(g613
g6
(g18
S'\xb4\xcex?'
p2585
tp2586
Rp2587
tp2588
a(g48
g6
(g18
S'\x80Qv?'
p2589
tp2590
Rp2591
tp2592
a(g1564
g6
(g18
S'\x14\x9ft?'
p2593
tp2594
Rp2595
tp2596
as(I40
g278
g88
tp2597
(lp2598
(g15
g6
(g18
S'\x00\x00\x80?'
p2599
tp2600
Rp2601
tp2602
a(g227
g6
(g18
S'p\x14k?'
p2603
tp2604
Rp2605
tp2606
a(g27
g6
(g18
S'\x85\x08\\?'
p2607
tp2608
Rp2609
tp2610
a(g638
g6
(g18
S'(\x8bM?'
p2611
tp2612
Rp2613
tp2614
a(g6
(g10
S'\xd5\x01\x00\x00\x00\x00\x00\x00'
p2615
tp2616
Rp2617
g6
(g18
S':!8?'
p2618
tp2619
Rp2620
tp2621
as(I30
I1
g88
tp2622
(lp2623
(g15
g6
(g18
S'\x00\x00\x80?'
p2624
tp2625
Rp2626
tp2627
a(g227
g6
(g18
S'\xb7&g?'
p2628
tp2629
Rp2630
tp2631
a(g1105
g6
(g18
S'\xf4\x82d?'
p2632
tp2633
Rp2634
tp2635
a(g2326
g6
(g18
S't\x92^?'
p2636
tp2637
Rp2638
tp2639
a(g162
g6
(g18
S'\x8a\x12[?'
p2640
tp2641
Rp2642
tp2643
as(I30
g278
I1
tp2644
(lp2645
(g15
g6
(g18
S'\x00\x00\x80?'
p2646
tp2647
Rp2648
tp2649
a(g1129
g6
(g18
S'9\x1d}?'
p2650
tp2651
Rp2652
tp2653
a(g319
g6
(g18
S'\xf9\x13}?'
p2654
tp2655
Rp2656
tp2657
a(g613
g6
(g18
S'b\xbc{?'
p2658
tp2659
Rp2660
tp2661
a(g149
g6
(g18
S'@\x94{?'
p2662
tp2663
Rp2664
tp2665
as(I18
g88
I10
tp2666
(lp2667
(g529
g6
(g18
S'\x00\x00\x80?'
p2668
tp2669
Rp2670
tp2671
a(g536
g6
(g18
S'\x00\x00\x80?'
p2672
tp2673
Rp2674
tp2675
a(g550
g6
(g18
S'\x00\x00\x80?'
p2676
tp2677
Rp2678
tp2679
a(g557
g6
(g18
S'\x00\x00\x80?'
p2680
tp2681
Rp2682
tp2683
a(g844
g6
(g18
S'\x00\x00\x80?'
p2684
tp2685
Rp2686
tp2687
as(I30
g88
g88
tp2688
(lp2689
(g15
g6
(g18
S'\x00\x00\x80?'
p2690
tp2691
Rp2692
tp2693
a(g1352
g6
(g18
S'^\xf1e?'
p2694
tp2695
Rp2696
tp2697
a(g6
(g10
S'\xd8\x06\x00\x00\x00\x00\x00\x00'
p2698
tp2699
Rp2700
g6
(g18
S'M\xc0a?'
p2701
tp2702
Rp2703
tp2704
a(g6
(g10
S'\xf5\x01\x00\x00\x00\x00\x00\x00'
p2705
tp2706
Rp2707
g6
(g18
S'V\x85a?'
p2708
tp2709
Rp2710
tp2711
a(g326
g6
(g18
S'\xca\xe7`?'
p2712
tp2713
Rp2714
tp2715
as(I25
g88
I10
tp2716
(lp2717
(g2190
g6
(g18
S'\x00\x00\x80?'
p2718
tp2719
Rp2720
tp2721
a(g6
(g10
S'\r\x00\x00\x00\x00\x00\x00\x00'
p2722
tp2723
Rp2724
g6
(g18
S'\x00\x00\x80?'
p2725
tp2726
Rp2727
tp2728
a(g339
g6
(g18
S'\x00\x00\x80?'
p2729
tp2730
Rp2731
tp2732
a(g6
(g10
S'\x10\x00\x00\x00\x00\x00\x00\x00'
p2733
tp2734
Rp2735
g6
(g18
S'\x00\x00\x80?'
p2736
tp2737
Rp2738
tp2739
a(g2552
g6
(g18
S'\x00\x00\x80?'
p2740
tp2741
Rp2742
tp2743
as(I20
g88
I10
tp2744
(lp2745
(g339
g6
(g18
S'\x00\x00\x80?'
p2746
tp2747
Rp2748
tp2749
a(g2559
g6
(g18
S'\x00\x00\x80?'
p2750
tp2751
Rp2752
tp2753
a(g2566
g6
(g18
S'\x00\x00\x80?'
p2754
tp2755
Rp2756
tp2757
a(g1266
g6
(g18
S'\x00\x00\x80?'
p2758
tp2759
Rp2760
tp2761
a(g1740
g6
(g18
S'\x00\x00\x80?'
p2762
tp2763
Rp2764
tp2765
as(I30
g278
I3
tp2766
(lp2767
(g339
g6
(g18
S'\x00\x00\x80?'
p2768
tp2769
Rp2770
tp2771
a(g58
g6
(g18
S'\x00\x00\x80?'
p2772
tp2773
Rp2774
tp2775
a(g65
g6
(g18
S'\x00\x00\x80?'
p2776
tp2777
Rp2778
tp2779
a(g354
g6
(g18
S'\x00\x00\x80?'
p2780
tp2781
Rp2782
tp2783
a(g15
g6
(g18
S'\x00\x00\x80?'
p2784
tp2785
Rp2786
tp2787
as(I20
I1
F0.3
tp2788
(lp2789
(g15
g6
(g18
S'\xff\xff\x7f?'
p2790
tp2791
Rp2792
tp2793
a(g118
g6
(g18
S'\xc4\xbfx?'
p2794
tp2795
Rp2796
tp2797
a(g1352
g6
(g18
S'\x91\xbfl?'
p2798
tp2799
Rp2800
tp2801
a(g27
g6
(g18
S'\xc22j?'
p2802
tp2803
Rp2804
tp2805
a(g1874
g6
(g18
S'\xac\xf9i?'
p2806
tp2807
Rp2808
tp2809
as(I30
g278
F0.3
tp2810
(lp2811
(g15
g6
(g18
S'\x00\x00\x80?'
p2812
tp2813
Rp2814
tp2815
a(g1352
g6
(g18
S'\xc9\x8cr?'
p2816
tp2817
Rp2818
tp2819
a(g34
g6
(g18
S'\xa1fi?'
p2820
tp2821
Rp2822
tp2823
a(g326
g6
(g18
S'\xb3\xa3e?'
p2824
tp2825
Rp2826
tp2827
a(g1914
g6
(g18
S'\xb4\x1ea?'
p2828
tp2829
Rp2830
tp2831
as(I30
I10
F0.3
tp2832
(lp2833
(g15
g6
(g18
S'\x00\x00\x80?'
p2834
tp2835
Rp2836
tp2837
a(g227
g6
(g18
S'26z?'
p2838
tp2839
Rp2840
tp2841
a(g183
g6
(g18
S'\x0b\xaax?'
p2842
tp2843
Rp2844
tp2845
a(g97
g6
(g18
S'\x1c\x88x?'
p2846
tp2847
Rp2848
tp2849
a(g48
g6
(g18
S'C\xe5v?'
p2850
tp2851
Rp2852
tp2853
as(I30
I3
g88
tp2854
(lp2855
(g15
g6
(g18
S'\x00\x00\x80?'
p2856
tp2857
Rp2858
tp2859
a(g27
g6
(g18
S'`\xe4n?'
p2860
tp2861
Rp2862
tp2863
a(g97
g6
(g18
S'@\ri?'
p2864
tp2865
Rp2866
tp2867
a(g291
g6
(g18
S'C\xc8f?'
p2868
tp2869
Rp2870
tp2871
a(g138
g6
(g18
S'\x15\xc3c?'
p2872
tp2873
Rp2874
tp2875
as(I20
I3
I10
tp2876
(lp2877
(g15
g6
(g18
S'\x00\x00\x80?'
p2878
tp2879
Rp2880
tp2881
a(g6
(g10
S'\xf2\x07\x00\x00\x00\x00\x00\x00'
p2882
tp2883
Rp2884
g6
(g18
S'\xf8\xff\x7f?'
p2885
tp2886
Rp2887
tp2888
a(g6
(g10
S'\x0e\x07\x00\x00\x00\x00\x00\x00'
p2889
tp2890
Rp2891
g6
(g18
S'\xda\xff\x7f?'
p2892
tp2893
Rp2894
tp2895
a(g1291
g6
(g18
S'\xba\xff\x7f?'
p2896
tp2897
Rp2898
tp2899
a(g6
(g10
S'\xb0\x04\x00\x00\x00\x00\x00\x00'
p2900
tp2901
Rp2902
g6
(g18
S'\x90\xff\x7f?'
p2903
tp2904
Rp2905
tp2906
as(I18
g88
F0.3
tp2907
(lp2908
(g15
g6
(g18
S'\x00\x00\x80?'
p2909
tp2910
Rp2911
tp2912
a(g2177
g6
(g18
S'\\\xd3u?'
p2913
tp2914
Rp2915
tp2916
a(g658
g6
(g18
S',\x97t?'
p2917
tp2918
Rp2919
tp2920
a(g65
g6
(g18
S'\xe02t?'
p2921
tp2922
Rp2923
tp2924
a(g1175
g6
(g18
S'\xbc\xb9q?'
p2925
tp2926
Rp2927
tp2928
as(I30
I3
I1
tp2929
(lp2930
(g15
g6
(g18
S'\x00\x00\x80?'
p2931
tp2932
Rp2933
tp2934
a(g41
g6
(g18
S'T\x90m?'
p2935
tp2936
Rp2937
tp2938
a(g176
g6
(g18
S'\xbe\xc1j?'
p2939
tp2940
Rp2941
tp2942
a(g27
g6
(g18
S'\x9eAf?'
p2943
tp2944
Rp2945
tp2946
a(g6
(g10
S'\xc2\x06\x00\x00\x00\x00\x00\x00'
p2947
tp2948
Rp2949
g6
(g18
S'\xf1\xc4d?'
p2950
tp2951
Rp2952
tp2953
as(I25
I1
F0.3
tp2954
(lp2955
(g15
g6
(g18
S'\x00\x00\x80?'
p2956
tp2957
Rp2958
tp2959
a(g227
g6
(g18
S'\xddAz?'
p2960
tp2961
Rp2962
tp2963
a(g248
g6
(g18
S'p\xbbu?'
p2964
tp2965
Rp2966
tp2967
a(g234
g6
(g18
S'\x8f\xb4u?'
p2968
tp2969
Rp2970
tp2971
a(g291
g6
(g18
S'a\xcbt?'
p2972
tp2973
Rp2974
tp2975
as(I40
g88
I10
tp2976
(lp2977
(g15
g6
(g18
S'\x00\x00\x80?'
p2978
tp2979
Rp2980
tp2981
a(g6
(g10
S'\x1c\x03\x00\x00\x00\x00\x00\x00'
p2982
tp2983
Rp2984
g6
(g18
S'\xfe\xff\x7f?'
p2985
tp2986
Rp2987
tp2988
a(g6
(g10
S'\x9e\x02\x00\x00\x00\x00\x00\x00'
p2989
tp2990
Rp2991
g6
(g18
S'\xf9\xff\x7f?'
p2992
tp2993
Rp2994
tp2995
a(g6
(g10
S'<\x03\x00\x00\x00\x00\x00\x00'
p2996
tp2997
Rp2998
g6
(g18
S'\xec\xff\x7f?'
p2999
tp3000
Rp3001
tp3002
a(g1239
g6
(g18
S'\xa6\xff\x7f?'
p3003
tp3004
Rp3005
tp3006
as(I25
I10
I1
tp3007
(lp3008
(g15
g6
(g18
S'\x00\x00\x80?'
p3009
tp3010
Rp3011
tp3012
a(g131
g6
(g18
S'\xa6\xdbz?'
p3013
tp3014
Rp3015
tp3016
a(g241
g6
(g18
S'\xfa\x9ey?'
p3017
tp3018
Rp3019
tp3020
a(g149
g6
(g18
S'\xc4\x84y?'
p3021
tp3022
Rp3023
tp3024
a(g48
g6
(g18
S'&\xd4x?'
p3025
tp3026
Rp3027
tp3028
as(I25
I3
I3
tp3029
(lp3030
(g15
g6
(g18
S'\xff\xff\x7f?'
p3031
tp3032
Rp3033
tp3034
a(g83
g6
(g18
S'\xeb\xce\x7f?'
p3035
tp3036
Rp3037
tp3038
a(g2073
g6
(g18
S'\xea\xc1\x7f?'
p3039
tp3040
Rp3041
tp3042
a(g214
g6
(g18
S'\xb6\xb7\x7f?'
p3043
tp3044
Rp3045
tp3046
a(g1006
g6
(g18
S'\xd2\x9f\x7f?'
p3047
tp3048
Rp3049
tp3050
as(I30
I3
I3
tp3051
(lp3052
(g15
g6
(g18
S'\x00\x00\x80?'
p3053
tp3054
Rp3055
tp3056
a(g2343
g6
(g18
S'k\xfc\x7f?'
p3057
tp3058
Rp3059
tp3060
a(g1122
g6
(g18
S',\xef\x7f?'
p3061
tp3062
Rp3063
tp3064
a(g427
g6
(g18
S'\x15\xeb\x7f?'
p3065
tp3066
Rp3067
tp3068
a(g638
g6
(g18
S's\xe9\x7f?'
p3069
tp3070
Rp3071
tp3072
as(I25
I10
g88
tp3073
(lp3074
(g15
g6
(g18
S'\x00\x00\x80?'
p3075
tp3076
Rp3077
tp3078
a(g6
(g10
S'\xf1\x04\x00\x00\x00\x00\x00\x00'
p3079
tp3080
Rp3081
g6
(g18
S'\xe8\xff\x7f?'
p3082
tp3083
Rp3084
tp3085
a(g2343
g6
(g18
S'\xe6\xff\x7f?'
p3086
tp3087
Rp3088
tp3089
a(g6
(g10
S'\x06\x07\x00\x00\x00\x00\x00\x00'
p3090
tp3091
Rp3092
g6
(g18
S'\xd2\xff\x7f?'
p3093
tp3094
Rp3095
tp3096
a(g6
(g10
S'\xa3\x01\x00\x00\x00\x00\x00\x00'
p3097
tp3098
Rp3099
g6
(g18
S'\xca\xff\x7f?'
p3100
tp3101
Rp3102
tp3103
as(I18
I1
I3
tp3104
(lp3105
(g15
g6
(g18
S'\x00\x00\x80?'
p3106
tp3107
Rp3108
tp3109
a(g793
g6
(g18
S'\xb1\xf2\x7f?'
p3110
tp3111
Rp3112
tp3113
a(g1122
g6
(g18
S'\x03\xf2\x7f?'
p3114
tp3115
Rp3116
tp3117
a(g427
g6
(g18
S'\x9a\xf0\x7f?'
p3118
tp3119
Rp3120
tp3121
a(g83
g6
(g18
S'\xf5\xef\x7f?'
p3122
tp3123
Rp3124
tp3125
as(I25
I10
I3
tp3126
(lp3127
(g15
g6
(g18
S'\x00\x00\x80?'
p3128
tp3129
Rp3130
tp3131
a(g2251
g6
(g18
S'B\x18~?'
p3132
tp3133
Rp3134
tp3135
a(g434
g6
(g18
S'\xbb\xe9}?'
p3136
tp3137
Rp3138
tp3139
a(g27
g6
(g18
S'\x8b\xac}?'
p3140
tp3141
Rp3142
tp3143
a(g118
g6
(g18
S'\xb4\x9f}?'
p3144
tp3145
Rp3146
tp3147
as(I18
I10
I10
tp3148
(lp3149
(g15
g6
(g18
S'\x00\x00\x80?'
p3150
tp3151
Rp3152
tp3153
a(g6
(g10
S'm\x02\x00\x00\x00\x00\x00\x00'
p3154
tp3155
Rp3156
g6
(g18
S'\x00\x00\x80?'
p3157
tp3158
Rp3159
tp3160
a(g6
(g10
S'W\x06\x00\x00\x00\x00\x00\x00'
p3161
tp3162
Rp3163
g6
(g18
S'\xfe\xff\x7f?'
p3164
tp3165
Rp3166
tp3167
a(g6
(g10
S'\x8a\x08\x00\x00\x00\x00\x00\x00'
p3168
tp3169
Rp3170
g6
(g18
S'\xf8\xff\x7f?'
p3171
tp3172
Rp3173
tp3174
a(g1651
g6
(g18
S'\xf2\xff\x7f?'
p3175
tp3176
Rp3177
tp3178
as(I30
g53
g88
tp3179
(lp3180
(g15
g6
(g18
S'\x00\x00\x80?'
p3181
tp3182
Rp3183
tp3184
a(g227
g6
(g18
S'Q\xdck?'
p3185
tp3186
Rp3187
tp3188
a(g298
g6
(g18
S'[\xfai?'
p3189
tp3190
Rp3191
tp3192
a(g131
g6
(g18
S'\xa8/i?'
p3193
tp3194
Rp3195
tp3196
a(g326
g6
(g18
S'\x7f\xd6f?'
p3197
tp3198
Rp3199
tp3200
as(I25
I3
I1
tp3201
(lp3202
(g15
g6
(g18
S'\x00\x00\x80?'
p3203
tp3204
Rp3205
tp3206
a(g227
g6
(g18
S'8N|?'
p3207
tp3208
Rp3209
tp3210
a(g793
g6
(g18
S'\x18\xf9y?'
p3211
tp3212
Rp3213
tp3214
a(g481
g6
(g18
S'\xb0yx?'
p3215
tp3216
Rp3217
tp3218
a(g2166
g6
(g18
S'\xb6\x8fv?'
p3219
tp3220
Rp3221
tp3222
as(I20
g278
g88
tp3223
(lp3224
(g15
g6
(g18
S'\xff\xff\x7f?'
p3225
tp3226
Rp3227
tp3228
a(g131
g6
(g18
S'dw~?'
p3229
tp3230
Rp3231
tp3232
a(g227
g6
(g18
S'Ea}?'
p3233
tp3234
Rp3235
tp3236
a(g396
g6
(g18
S')\xb4|?'
p3237
tp3238
Rp3239
tp3240
a(g6
(g10
S'\xee\x07\x00\x00\x00\x00\x00\x00'
p3241
tp3242
Rp3243
g6
(g18
S'g9|?'
p3244
tp3245
Rp3246
tp3247
as(I18
I1
I1
tp3248
(lp3249
(g15
g6
(g18
S'\x00\x00\x80?'
p3250
tp3251
Rp3252
tp3253
a(g27
g6
(g18
S'Y(|?'
p3254
tp3255
Rp3256
tp3257
a(g1914
g6
(g18
S'\xfaJ{?'
p3258
tp3259
Rp3260
tp3261
a(g6
(g10
S'\x9c\x01\x00\x00\x00\x00\x00\x00'
p3262
tp3263
Rp3264
g6
(g18
S'\x04\xb4z?'
p3265
tp3266
Rp3267
tp3268
a(g2166
g6
(g18
S'n_z?'
p3269
tp3270
Rp3271
tp3272
as(I25
I3
g88
tp3273
(lp3274
(g15
g6
(g18
S'\x00\x00\x80?'
p3275
tp3276
Rp3277
tp3278
a(g48
g6
(g18
S'\xe8\xaaq?'
p3279
tp3280
Rp3281
tp3282
a(g34
g6
(g18
S':Nk?'
p3283
tp3284
Rp3285
tp3286
a(g176
g6
(g18
S'\xd8>j?'
p3287
tp3288
Rp3289
tp3290
a(g131
g6
(g18
S'\x10\xe8h?'
p3291
tp3292
Rp3293
tp3294
as(I18
I1
g88
tp3295
(lp3296
(g15
g6
(g18
S'\x00\x00\x80?'
p3297
tp3298
Rp3299
tp3300
a(g118
g6
(g18
S'\xc2jo?'
p3301
tp3302
Rp3303
tp3304
a(g27
g6
(g18
S'\xb0\x13k?'
p3305
tp3306
Rp3307
tp3308
a(g131
g6
(g18
S'.\xc3d?'
p3309
tp3310
Rp3311
tp3312
a(g1874
g6
(g18
S'\xce\x0bd?'
p3313
tp3314
Rp3315
tp3316
as(I40
g278
I3
tp3317
(lp3318
(g339
g6
(g18
S'\x00\x00\x80?'
p3319
tp3320
Rp3321
tp3322
a(g2566
g6
(g18
S'\x00\x00\x80?'
p3323
tp3324
Rp3325
tp3326
a(g1266
g6
(g18
S'\x00\x00\x80?'
p3327
tp3328
Rp3329
tp3330
a(g65
g6
(g18
S'\x00\x00\x80?'
p3331
tp3332
Rp3333
tp3334
a(g354
g6
(g18
S'\x00\x00\x80?'
p3335
tp3336
Rp3337
tp3338
as(I40
g278
F0.3
tp3339
(lp3340
(g15
g6
(g18
S'\x00\x00\x80?'
p3341
tp3342
Rp3343
tp3344
a(g34
g6
(g18
S'\xb4\xb8{?'
p3345
tp3346
Rp3347
tp3348
a(g6
(g10
S'V\x06\x00\x00\x00\x00\x00\x00'
p3349
tp3350
Rp3351
g6
(g18
S'$\xddx?'
p3352
tp3353
Rp3354
tp3355
a(g339
g6
(g18
S'%\xc6w?'
p3356
tp3357
Rp3358
tp3359
a(g6
(g10
S'\xfb\x07\x00\x00\x00\x00\x00\x00'
p3360
tp3361
Rp3362
g6
(g18
S'\xb00u?'
p3363
tp3364
Rp3365
tp3366
as(I40
I3
I10
tp3367
(lp3368
(g15
g6
(g18
S'\x01\x00\x80?'
p3369
tp3370
Rp3371
tp3372
a(g1084
g6
(g18
S'\x00\x00\x80?'
p3373
tp3374
Rp3375
tp3376
a(g6
(g10
S'\xa6\x03\x00\x00\x00\x00\x00\x00'
p3377
tp3378
Rp3379
g6
(g18
S'\x00\x00\x80?'
p3380
tp3381
Rp3382
tp3383
a(g6
(g10
S'&\x07\x00\x00\x00\x00\x00\x00'
p3384
tp3385
Rp3386
g6
(g18
S'\xff\xff\x7f?'
p3387
tp3388
Rp3389
tp3390
a(g34
g6
(g18
S'\xfe\xff\x7f?'
p3391
tp3392
Rp3393
tp3394
as(I40
I1
I3
tp3395
(lp3396
(g15
g6
(g18
S'\x00\x00\x80?'
p3397
tp3398
Rp3399
tp3400
a(g725
g6
(g18
S'r\xf3\x7f?'
p3401
tp3402
Rp3403
tp3404
a(g793
g6
(g18
S'X\xe4\x7f?'
p3405
tp3406
Rp3407
tp3408
a(g2177
g6
(g18
S'{\xca\x7f?'
p3409
tp3410
Rp3411
tp3412
a(g83
g6
(g18
S'`\x81\x7f?'
p3413
tp3414
Rp3415
tp3416
as(I30
g88
I3
tp3417
(lp3418
(g58
g6
(g18
S'\x00\x00\x80?'
p3419
tp3420
Rp3421
tp3422
a(g65
g6
(g18
S'\x00\x00\x80?'
p3423
tp3424
Rp3425
tp3426
a(g15
g6
(g18
S'\x00\x00\x80?'
p3427
tp3428
Rp3429
tp3430
a(g76
g6
(g18
S'\x00\x00\x80?'
p3431
tp3432
Rp3433
tp3434
a(g83
g6
(g18
S'\x00\x00\x80?'
p3435
tp3436
Rp3437
tp3438
as(I20
I10
I10
tp3439
(lp3440
(g15
g6
(g18
S'\x00\x00\x80?'
p3441
tp3442
Rp3443
tp3444
a(g6
(g10
S'\xba\x06\x00\x00\x00\x00\x00\x00'
p3445
tp3446
Rp3447
g6
(g18
S'\xfc\xfb\x7f?'
p3448
tp3449
Rp3450
tp3451
a(g6
(g10
S'\xf4\x06\x00\x00\x00\x00\x00\x00'
p3452
tp3453
Rp3454
g6
(g18
S'\x8b\xd2\x7f?'
p3455
tp3456
Rp3457
tp3458
a(g2177
g6
(g18
S'\xa9\xd1\x7f?'
p3459
tp3460
Rp3461
tp3462
a(g1122
g6
(g18
S'\xca\xc5\x7f?'
p3463
tp3464
Rp3465
tp3466
as(I40
g278
I1
tp3467
(lp3468
(g15
g6
(g18
S'\x00\x00\x80?'
p3469
tp3470
Rp3471
tp3472
a(g227
g6
(g18
S'~\xae\x7f?'
p3473
tp3474
Rp3475
tp3476
a(g65
g6
(g18
S'\xd1\x8d\x7f?'
p3477
tp3478
Rp3479
tp3480
a(g76
g6
(g18
S'\xd1\x8d\x7f?'
p3481
tp3482
Rp3483
tp3484
a(g34
g6
(g18
S'\xd1\x8d\x7f?'
p3485
tp3486
Rp3487
tp3488
as(I30
g278
g88
tp3489
(lp3490
(g15
g6
(g18
S'\x00\x00\x80?'
p3491
tp3492
Rp3493
tp3494
a(g131
g6
(g18
S'\x1b\tr?'
p3495
tp3496
Rp3497
tp3498
a(g41
g6
(g18
S'V\x10c?'
p3499
tp3500
Rp3501
tp3502
a(g613
g6
(g18
S'\xc9\xc4a?'
p3503
tp3504
Rp3505
tp3506
a(g1069
g6
(g18
S'\xd4\x07a?'
p3507
tp3508
Rp3509
tp3510
as(I18
g53
I10
tp3511
(lp3512
(g529
g6
(g18
S'\x00\x00\x80?'
p3513
tp3514
Rp3515
tp3516
a(g536
g6
(g18
S'\x00\x00\x80?'
p3517
tp3518
Rp3519
tp3520
a(g339
g6
(g18
S'\x00\x00\x80?'
p3521
tp3522
Rp3523
tp3524
a(g2141
g6
(g18
S'\x00\x00\x80?'
p3525
tp3526
Rp3527
tp3528
a(g543
g6
(g18
S'\x00\x00\x80?'
p3529
tp3530
Rp3531
tp3532
as(I30
g88
I1
tp3533
(lp3534
(g15
g6
(g18
S'\xff\xff\x7f?'
p3535
tp3536
Rp3537
tp3538
a(g658
g6
(g18
S'V:~?'
p3539
tp3540
Rp3541
tp3542
a(g1129
g6
(g18
S'L\x1f~?'
p3543
tp3544
Rp3545
tp3546
a(g6
(g10
S'8\x06\x00\x00\x00\x00\x00\x00'
p3547
tp3548
Rp3549
g6
(g18
S'\n\xc8}?'
p3550
tp3551
Rp3552
tp3553
a(g1136
g6
(g18
S'Z\xfd{?'
p3554
tp3555
Rp3556
tp3557
as(I20
I10
F0.3
tp3558
(lp3559
(g15
g6
(g18
S'\x00\x00\x80?'
p3560
tp3561
Rp3562
tp3563
a(g34
g6
(g18
S'`Gz?'
p3564
tp3565
Rp3566
tp3567
a(g227
g6
(g18
S'\xb4\xdby?'
p3568
tp3569
Rp3570
tp3571
a(g131
g6
(g18
S'\xca\x8bv?'
p3572
tp3573
Rp3574
tp3575
a(g162
g6
(g18
S'\x9c-u?'
p3576
tp3577
Rp3578
tp3579
as(I25
g278
I10
tp3580
(lp3581
(g529
g6
(g18
S'\x00\x00\x80?'
p3582
tp3583
Rp3584
tp3585
a(g536
g6
(g18
S'\x00\x00\x80?'
p3586
tp3587
Rp3588
tp3589
a(g543
g6
(g18
S'\x00\x00\x80?'
p3590
tp3591
Rp3592
tp3593
a(g550
g6
(g18
S'\x00\x00\x80?'
p3594
tp3595
Rp3596
tp3597
a(g557
g6
(g18
S'\x00\x00\x80?'
p3598
tp3599
Rp3600
tp3601
as(I18
I3
g88
tp3602
(lp3603
(g15
g6
(g18
S'\x01\x00\x80?'
p3604
tp3605
Rp3606
tp3607
a(g1129
g6
(g18
S'I\x92u?'
p3608
tp3609
Rp3610
tp3611
a(g34
g6
(g18
S'\xdf[u?'
p3612
tp3613
Rp3614
tp3615
a(g27
g6
(g18
S'\x1a\x1cu?'
p3616
tp3617
Rp3618
tp3619
a(g227
g6
(g18
S'\xf1\x15u?'
p3620
tp3621
Rp3622
tp3623
as(I30
g88
F0.3
tp3624
(lp3625
(g15
g6
(g18
S'\x00\x00\x80?'
p3626
tp3627
Rp3628
tp3629
a(g326
g6
(g18
S'P\x8f|?'
p3630
tp3631
Rp3632
tp3633
a(g481
g6
(g18
S'&\xbfz?'
p3634
tp3635
Rp3636
tp3637
a(g319
g6
(g18
S'o\xa2y?'
p3638
tp3639
Rp3640
tp3641
a(g6
(g10
S'G\x01\x00\x00\x00\x00\x00\x00'
p3642
tp3643
Rp3644
g6
(g18
S'?\x1ax?'
p3645
tp3646
Rp3647
tp3648
as(I25
I10
I10
tp3649
(lp3650
(g15
g6
(g18
S'\x00\x00\x80?'
p3651
tp3652
Rp3653
tp3654
a(g3156
g6
(g18
S'\xfa\xff\x7f?'
p3655
tp3656
Rp3657
tp3658
a(g1662
g6
(g18
S'\xf4\xff\x7f?'
p3659
tp3660
Rp3661
tp3662
a(g6
(g10
S'N\x06\x00\x00\x00\x00\x00\x00'
p3663
tp3664
Rp3665
g6
(g18
S'\xe4\xff\x7f?'
p3666
tp3667
Rp3668
tp3669
a(g6
(g10
S'\xf4\x03\x00\x00\x00\x00\x00\x00'
p3670
tp3671
Rp3672
g6
(g18
S'\xcf\xff\x7f?'
p3673
tp3674
Rp3675
tp3676
as(I20
g88
F0.3
tp3677
(lp3678
(g15
g6
(g18
S'\x00\x00\x80?'
p3679
tp3680
Rp3681
tp3682
a(g414
g6
(g18
S'\xb9||?'
p3683
tp3684
Rp3685
tp3686
a(g118
g6
(g18
S'\x05=|?'
p3687
tp3688
Rp3689
tp3690
a(g34
g6
(g18
S'T\x88z?'
p3691
tp3692
Rp3693
tp3694
a(g131
g6
(g18
S'\x11\xccy?'
p3695
tp3696
Rp3697
tp3698
as(I40
I10
I10
tp3699
(lp3700
(g6
(g10
S'\x8a\x01\x00\x00\x00\x00\x00\x00'
p3701
tp3702
Rp3703
g6
(g18
S'\x01\x00\x80?'
p3704
tp3705
Rp3706
tp3707
a(g6
(g10
S'\xbc\x04\x00\x00\x00\x00\x00\x00'
p3708
tp3709
Rp3710
g6
(g18
S'\x01\x00\x80?'
p3711
tp3712
Rp3713
tp3714
a(g6
(g10
S'\xdb\x07\x00\x00\x00\x00\x00\x00'
p3715
tp3716
Rp3717
g6
(g18
S'\x01\x00\x80?'
p3718
tp3719
Rp3720
tp3721
a(g1508
g6
(g18
S'\x00\x00\x80?'
p3722
tp3723
Rp3724
tp3725
a(g1515
g6
(g18
S'\x00\x00\x80?'
p3726
tp3727
Rp3728
tp3729
as(I30
I1
I10
tp3730
(lp3731
(g1508
g6
(g18
S'\x00\x00\x80?'
p3732
tp3733
Rp3734
tp3735
a(g1515
g6
(g18
S'\x00\x00\x80?'
p3736
tp3737
Rp3738
tp3739
a(g1522
g6
(g18
S'\x00\x00\x80?'
p3740
tp3741
Rp3742
tp3743
a(g1529
g6
(g18
S'\x00\x00\x80?'
p3744
tp3745
Rp3746
tp3747
a(g529
g6
(g18
S'\x00\x00\x80?'
p3748
tp3749
Rp3750
tp3751
as(I30
I10
I3
tp3752
(lp3753
(g15
g6
(g18
S'\x00\x00\x80?'
p3754
tp3755
Rp3756
tp3757
a(g6
(g10
S'\xb1\x07\x00\x00\x00\x00\x00\x00'
p3758
tp3759
Rp3760
g6
(g18
S'\x84\xef\x7f?'
p3761
tp3762
Rp3763
tp3764
a(g2343
g6
(g18
S'K\xed\x7f?'
p3765
tp3766
Rp3767
tp3768
a(g131
g6
(g18
S'\x94\xcb\x7f?'
p3769
tp3770
Rp3771
tp3772
a(g2251
g6
(g18
S'S\xbf\x7f?'
p3773
tp3774
Rp3775
tp3776
as(I20
g53
F0.3
tp3777
(lp3778
(g15
g6
(g18
S'\x00\x00\x80?'
p3779
tp3780
Rp3781
tp3782
a(g1983
g6
(g18
S'\xb8I}?'
p3783
tp3784
Rp3785
tp3786
a(g131
g6
(g18
S'(ix?'
p3787
tp3788
Rp3789
tp3790
a(g6
(g10
S'\xc1\x03\x00\x00\x00\x00\x00\x00'
p3791
tp3792
Rp3793
g6
(g18
S'|\xf3w?'
p3794
tp3795
Rp3796
tp3797
a(g6
(g10
S'\xaa\x08\x00\x00\x00\x00\x00\x00'
p3798
tp3799
Rp3800
g6
(g18
S'\xf53t?'
p3801
tp3802
Rp3803
tp3804
as(I30
I10
g88
tp3805
(lp3806
(g550
g6
(g18
S'\x00\x00\x80?'
p3807
tp3808
Rp3809
tp3810
a(g65
g6
(g18
S'\x00\x00\x80?'
p3811
tp3812
Rp3813
tp3814
a(g6
(g10
S'N\x00\x00\x00\x00\x00\x00\x00'
p3815
tp3816
Rp3817
g6
(g18
S'\x00\x00\x80?'
p3818
tp3819
Rp3820
tp3821
a(g6
(g10
S'l\x00\x00\x00\x00\x00\x00\x00'
p3822
tp3823
Rp3824
g6
(g18
S'\x00\x00\x80?'
p3825
tp3826
Rp3827
tp3828
a(g6
(g10
S'r\x00\x00\x00\x00\x00\x00\x00'
p3829
tp3830
Rp3831
g6
(g18
S'\x00\x00\x80?'
p3832
tp3833
Rp3834
tp3835
as(I30
I10
I1
tp3836
(lp3837
(g15
g6
(g18
S'\xff\xff\x7f?'
p3838
tp3839
Rp3840
tp3841
a(g227
g6
(g18
S'\xe9/{?'
p3842
tp3843
Rp3844
tp3845
a(g131
g6
(g18
S'u\xadz?'
p3846
tp3847
Rp3848
tp3849
a(g27
g6
(g18
S'\xdd\xfby?'
p3850
tp3851
Rp3852
tp3853
a(g149
g6
(g18
S'\x01\xc3y?'
p3854
tp3855
Rp3856
tp3857
as.