ccollections
defaultdict
p0
(c__builtin__
list
p1
tp2
Rp3
(I18
I1
F0.3
tp4
(lp5
(cnumpy.core.multiarray
scalar
p6
(cnumpy
dtype
p7
(S'i8'
p8
I0
I1
tp9
Rp10
(I3
S'<'
p11
NNNI-1
I-1
I0
tp12
bS'\x82\x06\x00\x00\x00\x00\x00\x00'
p13
tp14
Rp15
g6
(g7
(S'f4'
p16
I0
I1
tp17
Rp18
(I3
S'<'
p19
NNNI-1
I-1
I0
tp20
bS'\x00\x00\x80?'
p21
tp22
Rp23
tp24
a(g6
(g10
S'{\x05\x00\x00\x00\x00\x00\x00'
p25
tp26
Rp27
g6
(g18
S'\xf1\xb3t?'
p28
tp29
Rp30
tp31
a(g6
(g10
S'g\x02\x00\x00\x00\x00\x00\x00'
p32
tp33
Rp34
g6
(g18
S'\xaa\xb0r?'
p35
tp36
Rp37
tp38
a(g6
(g10
S'\x0b\x08\x00\x00\x00\x00\x00\x00'
p39
tp40
Rp41
g6
(g18
S'\n\x84r?'
p42
tp43
Rp44
tp45
a(g6
(g10
S']\x06\x00\x00\x00\x00\x00\x00'
p46
tp47
Rp48
g6
(g18
S'\xb9@r?'
p49
tp50
Rp51
tp52
as(I25
S'asymmetric'
p53
I3
tp54
(lp55
(g6
(g10
S'F\x00\x00\x00\x00\x00\x00\x00'
p56
tp57
Rp58
g6
(g18
S'\x00\x00\x80?'
p59
tp60
Rp61
tp62
a(g6
(g10
S'Q\x00\x00\x00\x00\x00\x00\x00'
p63
tp64
Rp65
g6
(g18
S'\x00\x00\x80?'
p66
tp67
Rp68
tp69
a(g6
(g10
S'm\x00\x00\x00\x00\x00\x00\x00'
p70
tp71
Rp72
g6
(g18
S'\x00\x00\x80?'
p73
tp74
Rp75
tp76
a(g6
(g10
S's\x00\x00\x00\x00\x00\x00\x00'
p77
tp78
Rp79
g6
(g18
S'\x00\x00\x80?'
p80
tp81
Rp82
tp83
a(g6
(g10
S'\x9e\x00\x00\x00\x00\x00\x00\x00'
p84
tp85
Rp86
g6
(g18
S'\x00\x00\x80?'
p87
tp88
Rp89
tp90
as(I25
S'auto'
p91
F0.3
tp92
(lp93
(g15
g6
(g18
S'\x00\x00\x80?'
p94
tp95
Rp96
tp97
a(g6
(g10
S'+\x05\x00\x00\x00\x00\x00\x00'
p98
tp99
Rp100
g6
(g18
S'\x90\xfa\x7f?'
p101
tp102
Rp103
tp104
a(g27
g6
(g18
S'0\xd1\x7f?'
p105
tp106
Rp107
tp108
a(g6
(g10
S'\xa2\x07\x00\x00\x00\x00\x00\x00'
p109
tp110
Rp111
g6
(g18
S']\xc1\x7f?'
p112
tp113
Rp114
tp115
a(g6
(g10
S'p\x04\x00\x00\x00\x00\x00\x00'
p116
tp117
Rp118
g6
(g18
S'm\x95\x7f?'
p119
tp120
Rp121
tp122
as(I30
I3
F0.3
tp123
(lp124
(g15
g6
(g18
S'\x00\x00\x80?'
p125
tp126
Rp127
tp128
a(g118
g6
(g18
S'V"x?'
p129
tp130
Rp131
tp132
a(g6
(g10
S'v\x06\x00\x00\x00\x00\x00\x00'
p133
tp134
Rp135
g6
(g18
S'\xbf\x0fw?'
p136
tp137
Rp138
tp139
a(g6
(g10
S'6\x04\x00\x00\x00\x00\x00\x00'
p140
tp141
Rp142
g6
(g18
S'M\x1fv?'
p143
tp144
Rp145
tp146
a(g6
(g10
S'\xc0\x02\x00\x00\x00\x00\x00\x00'
p147
tp148
Rp149
g6
(g18
S'X\xacq?'
p150
tp151
Rp152
tp153
as(I25
I3
F0.3
tp154
(lp155
(g15
g6
(g18
S'\x00\x00\x80?'
p156
tp157
Rp158
tp159
a(g27
g6
(g18
S'\x8e)y?'
p160
tp161
Rp162
tp163
a(g6
(g10
S'\x88\x06\x00\x00\x00\x00\x00\x00'
p164
tp165
Rp166
g6
(g18
S'Bvv?'
p167
tp168
Rp169
tp170
a(g6
(g10
S'>\x08\x00\x00\x00\x00\x00\x00'
p171
tp172
Rp173
g6
(g18
S'f\xces?'
p174
tp175
Rp176
tp177
a(g6
(g10
S'A\x04\x00\x00\x00\x00\x00\x00'
p178
tp179
Rp180
g6
(g18
S'x\xf2p?'
p181
tp182
Rp183
tp184
as(I30
g53
I1
tp185
(lp186
(g15
g6
(g18
S'\x00\x00\x80?'
p187
tp188
Rp189
tp190
a(g6
(g10
S'\xc7\x08\x00\x00\x00\x00\x00\x00'
p191
tp192
Rp193
g6
(g18
S'\xd1P\x7f?'
p194
tp195
Rp196
tp197
a(g111
g6
(g18
S'\xde^}?'
p198
tp199
Rp200
tp201
a(g6
(g10
S'\xc8\x05\x00\x00\x00\x00\x00\x00'
p202
tp203
Rp204
g6
(g18
S'@\xa0|?'
p205
tp206
Rp207
tp208
a(g6
(g10
S'\x08\x04\x00\x00\x00\x00\x00\x00'
p209
tp210
Rp211
g6
(g18
S';\x9c|?'
p212
tp213
Rp214
tp215
as(I25
g53
I1
tp216
(lp217
(g15
g6
(g18
S'\x07\xfc\x7f?'
p218
tp219
Rp220
tp221
a(g135
g6
(g18
S'\xcd\xf7\x7f?'
p222
tp223
Rp224
tp225
a(g6
(g10
S'<\x06\x00\x00\x00\x00\x00\x00'
p226
tp227
Rp228
g6
(g18
S'a\xf5\x7f?'
p229
tp230
Rp231
tp232
a(g6
(g10
S'/\x08\x00\x00\x00\x00\x00\x00'
p233
tp234
Rp235
g6
(g18
S'\x9f\xe4\x7f?'
p236
tp237
Rp238
tp239
a(g6
(g10
S'&\x01\x00\x00\x00\x00\x00\x00'
p240
tp241
Rp242
g6
(g18
S'{\xb7\x7f?'
p243
tp244
Rp245
tp246
as(I18
g91
I3
tp247
(lp248
(g58
g6
(g18
S'\x00\x00\x80?'
p249
tp250
Rp251
tp252
a(g65
g6
(g18
S'\x00\x00\x80?'
p253
tp254
Rp255
tp256
a(g72
g6
(g18
S'\x00\x00\x80?'
p257
tp258
Rp259
tp260
a(g79
g6
(g18
S'\x00\x00\x80?'
p261
tp262
Rp263
tp264
a(g86
g6
(g18
S'\x00\x00\x80?'
p265
tp266
Rp267
tp268
as(I18
S'symmetric'
p269
I1
tp270
(lp271
(g15
g6
(g18
S'\x00\x00\x80?'
p272
tp273
Rp274
tp275
a(g111
g6
(g18
S'\xbc\xfa\x7f?'
p276
tp277
Rp278
tp279
a(g27
g6
(g18
S'2\xec\x7f?'
p280
tp281
Rp282
tp283
a(g6
(g10
S'*\x01\x00\x00\x00\x00\x00\x00'
p284
tp285
Rp286
g6
(g18
S'V\xda\x7f?'
p287
tp288
Rp289
tp290
a(g135
g6
(g18
S',\xc6\x7f?'
p291
tp292
Rp293
tp294
as(I25
g53
g91
tp295
(lp296
(g15
g6
(g18
S'\x00\x00\x80?'
p297
tp298
Rp299
tp300
a(g166
g6
(g18
S'\xb2\x11~?'
p301
tp302
Rp303
tp304
a(g111
g6
(g18
S'\xfdK|?'
p305
tp306
Rp307
tp308
a(g193
g6
(g18
S']C{?'
p309
tp310
Rp311
tp312
a(g27
g6
(g18
S'\xaa_y?'
p313
tp314
Rp315
tp316
as(I30
g53
I3
tp317
(lp318
(g58
g6
(g18
S'\x00\x00\x80?'
p319
tp320
Rp321
tp322
a(g65
g6
(g18
S'\x00\x00\x80?'
p323
tp324
Rp325
tp326
a(g6
(g10
S'V\x00\x00\x00\x00\x00\x00\x00'
p327
tp328
Rp329
g6
(g18
S'\x00\x00\x80?'
p330
tp331
Rp332
tp333
a(g72
g6
(g18
S'\x00\x00\x80?'
p334
tp335
Rp336
tp337
a(g79
g6
(g18
S'\x00\x00\x80?'
p338
tp339
Rp340
tp341
as(I18
g91
g91
tp342
(lp343
(g15
g6
(g18
S'\x00\x00\x80?'
p344
tp345
Rp346
tp347
a(g135
g6
(g18
S'\x82\x00{?'
p348
tp349
Rp350
tp351
a(g6
(g10
S'h\x08\x00\x00\x00\x00\x00\x00'
p352
tp353
Rp354
g6
(g18
S'\x80\xd0x?'
p355
tp356
Rp357
tp358
a(g211
g6
(g18
S'\xca\xa2x?'
p359
tp360
Rp361
tp362
a(g6
(g10
S'\xdc\x00\x00\x00\x00\x00\x00\x00'
p363
tp364
Rp365
g6
(g18
S'\xd0At?'
p366
tp367
Rp368
tp369
as(I18
g269
g91
tp370
(lp371
(g15
g6
(g18
S'\x01\x00\x80?'
p372
tp373
Rp374
tp375
a(g27
g6
(g18
S'\xd0\x8em?'
p376
tp377
Rp378
tp379
a(g6
(g10
S'\xc6\x06\x00\x00\x00\x00\x00\x00'
p380
tp381
Rp382
g6
(g18
S'4^l?'
p383
tp384
Rp385
tp386
a(g6
(g10
S'\xa7\x01\x00\x00\x00\x00\x00\x00'
p387
tp388
Rp389
g6
(g18
S'\xa26k?'
p390
tp391
Rp392
tp393
a(g6
(g10
S'\xdf\x02\x00\x00\x00\x00\x00\x00'
p394
tp395
Rp396
g6
(g18
S'\x91\xcfj?'
p397
tp398
Rp399
tp400
as(I18
g91
I1
tp401
(lp402
(g15
g6
(g18
S'\x00\x00\x80?'
p403
tp404
Rp405
tp406
a(g111
g6
(g18
S'J\x9e\x7f?'
p407
tp408
Rp409
tp410
a(g27
g6
(g18
S'M\xa7{?'
p411
tp412
Rp413
tp414
a(g6
(g10
S')\x03\x00\x00\x00\x00\x00\x00'
p415
tp416
Rp417
g6
(g18
S'\xe0\xdbw?'
p418
tp419
Rp420
tp421
a(g6
(g10
S'\xe0\x04\x00\x00\x00\x00\x00\x00'
p422
tp423
Rp424
g6
(g18
S'\x18\x98w?'
p425
tp426
Rp427
tp428
as(I18
g269
I3
tp429
(lp430
(g58
g6
(g18
S'\x00\x00\x80?'
p431
tp432
Rp433
tp434
a(g65
g6
(g18
S'\x00\x00\x80?'
p435
tp436
Rp437
tp438
a(g329
g6
(g18
S'\x00\x00\x80?'
p439
tp440
Rp441
tp442
a(g72
g6
(g18
S'\x00\x00\x80?'
p443
tp444
Rp445
tp446
a(g79
g6
(g18
S'\x00\x00\x80?'
p447
tp448
Rp449
tp450
as(I40
I1
g91
tp451
(lp452
(g15
g6
(g18
S'\x00\x00\x80?'
p453
tp454
Rp455
tp456
a(g27
g6
(g18
S'\xe0\xf4{?'
p457
tp458
Rp459
tp460
a(g173
g6
(g18
S'\xee\xefw?'
p461
tp462
Rp463
tp464
a(g6
(g10
S'`\x04\x00\x00\x00\x00\x00\x00'
p465
tp466
Rp467
g6
(g18
S'\x02\xd0w?'
p468
tp469
Rp470
tp471
a(g118
g6
(g18
S'\xb4gv?'
p472
tp473
Rp474
tp475
as(I20
I3
F0.3
tp476
(lp477
(g15
g6
(g18
S'\x00\x00\x80?'
p478
tp479
Rp480
tp481
a(g166
g6
(g18
S'I\x1b~?'
p482
tp483
Rp484
tp485
a(g27
g6
(g18
S'\x0eM}?'
p486
tp487
Rp488
tp489
a(g211
g6
(g18
S'8\t{?'
p490
tp491
Rp492
tp493
a(g193
g6
(g18
S'\xb7\xe1w?'
p494
tp495
Rp496
tp497
as(I40
g53
I10
tp498
(lp499
(g6
(g10
S'\x03\x00\x00\x00\x00\x00\x00\x00'
p500
tp501
Rp502
g6
(g18
S'\x00\x00\x80?'
p503
tp504
Rp505
tp506
a(g6
(g10
S'\x15\x00\x00\x00\x00\x00\x00\x00'
p507
tp508
Rp509
g6
(g18
S'\x00\x00\x80?'
p510
tp511
Rp512
tp513
a(g6
(g10
S'\x17\x00\x00\x00\x00\x00\x00\x00'
p514
tp515
Rp516
g6
(g18
S'\x00\x00\x80?'
p517
tp518
Rp519
tp520
a(g6
(g10
S'\x1d\x00\x00\x00\x00\x00\x00\x00'
p521
tp522
Rp523
g6
(g18
S'\x00\x00\x80?'
p524
tp525
Rp526
tp527
a(g6
(g10
S'\x1e\x00\x00\x00\x00\x00\x00\x00'
p528
tp529
Rp530
g6
(g18
S'\x00\x00\x80?'
p531
tp532
Rp533
tp534
as(I25
I1
I10
tp535
(lp536
(g502
g6
(g18
S'\x00\x00\x80?'
p537
tp538
Rp539
tp540
a(g509
g6
(g18
S'\x00\x00\x80?'
p541
tp542
Rp543
tp544
a(g523
g6
(g18
S'\x00\x00\x80?'
p545
tp546
Rp547
tp548
a(g6
(g10
S'7\x00\x00\x00\x00\x00\x00\x00'
p549
tp550
Rp551
g6
(g18
S'\x00\x00\x80?'
p552
tp553
Rp554
tp555
a(g6
(g10
S'<\x00\x00\x00\x00\x00\x00\x00'
p556
tp557
Rp558
g6
(g18
S'\x00\x00\x80?'
p559
tp560
Rp561
tp562
as(I40
I10
F0.3
tp563
(lp564
(g15
g6
(g18
S'\x00\x00\x80?'
p565
tp566
Rp567
tp568
a(g211
g6
(g18
S'\xaf\xb5y?'
p569
tp570
Rp571
tp572
a(g467
g6
(g18
S'8\xf7x?'
p573
tp574
Rp575
tp576
a(g204
g6
(g18
S'.\xe6u?'
p577
tp578
Rp579
tp580
a(g118
g6
(g18
S'\x0e\\u?'
p581
tp582
Rp583
tp584
as(I40
g91
g91
tp585
(lp586
(g15
g6
(g18
S'\x00\x00\x80?'
p587
tp588
Rp589
tp590
a(g111
g6
(g18
S'Bi{?'
p591
tp592
Rp593
tp594
a(g118
g6
(g18
S'\xadbz?'
p595
tp596
Rp597
tp598
a(g166
g6
(g18
S'\x0f\x0fx?'
p599
tp600
Rp601
tp602
a(g6
(g10
S'\xeb\x06\x00\x00\x00\x00\x00\x00'
p603
tp604
Rp605
g6
(g18
S'Yew?'
p606
tp607
Rp608
tp609
as(I20
g269
F0.3
tp610
(lp611
(g15
g6
(g18
S'\x00\x00\x80?'
p612
tp613
Rp614
tp615
a(g6
(g10
S'\xef\x02\x00\x00\x00\x00\x00\x00'
p616
tp617
Rp618
g6
(g18
S'N\xac}?'
p619
tp620
Rp621
tp622
a(g111
g6
(g18
S'\x7fp}?'
p623
tp624
Rp625
tp626
a(g6
(g10
S'\x7f\x08\x00\x00\x00\x00\x00\x00'
p627
tp628
Rp629
g6
(g18
S'&M}?'
p630
tp631
Rp632
tp633
a(g354
g6
(g18
S'\x145}?'
p634
tp635
Rp636
tp637
as(I20
I1
I10
tp638
(lp639
(g502
g6
(g18
S'\x00\x00\x80?'
p640
tp641
Rp642
tp643
a(g509
g6
(g18
S'\x00\x00\x80?'
p644
tp645
Rp646
tp647
a(g523
g6
(g18
S'\x00\x00\x80?'
p648
tp649
Rp650
tp651
a(g551
g6
(g18
S'\x00\x00\x80?'
p652
tp653
Rp654
tp655
a(g6
(g10
S';\x00\x00\x00\x00\x00\x00\x00'
p656
tp657
Rp658
g6
(g18
S'\x00\x00\x80?'
p659
tp660
Rp661
tp662
as(I20
I3
I3
tp663
(lp664
(g15
g6
(g18
S'\x00\x00\x80?'
p665
tp666
Rp667
tp668
a(g27
g6
(g18
S'\xf5\xd4\x7f?'
p669
tp670
Rp671
tp672
a(g6
(g10
S'\xd5\x07\x00\x00\x00\x00\x00\x00'
p673
tp674
Rp675
g6
(g18
S'@\xc4\x7f?'
p676
tp677
Rp678
tp679
a(g111
g6
(g18
S'\x9f\xad\x7f?'
p680
tp681
Rp682
tp683
a(g135
g6
(g18
S"'\xa3\x7f?"
p684
tp685
Rp686
tp687
as(I40
I1
F0.3
tp688
(lp689
(g15
g6
(g18
S'\x00\x00\x80?'
p690
tp691
Rp692
tp693
a(g354
g6
(g18
S'=\xb8{?'
p694
tp695
Rp696
tp697
a(g382
g6
(g18
S'\xca\xfbz?'
p698
tp699
Rp700
tp701
a(g27
g6
(g18
S'?\xf6z?'
p702
tp703
Rp704
tp705
a(g605
g6
(g18
S'\xee\xb5z?'
p706
tp707
Rp708
tp709
as(I18
I3
I1
tp710
(lp711
(g15
g6
(g18
S'\x00\x00\x80?'
p712
tp713
Rp714
tp715
a(g365
g6
(g18
S'\xa1\xd6z?'
p716
tp717
Rp718
tp719
a(g27
g6
(g18
S'>\xbdz?'
p720
tp721
Rp722
tp723
a(g424
g6
(g18
S'\xa8\xa7z?'
p724
tp725
Rp726
tp727
a(g166
g6
(g18
S'\xbaRz?'
p728
tp729
Rp730
tp731
as(I18
I1
I10
tp732
(lp733
(g523
g6
(g18
S'\x00\x00\x80?'
p734
tp735
Rp736
tp737
a(g6
(g10
S'O\x00\x00\x00\x00\x00\x00\x00'
p738
tp739
Rp740
g6
(g18
S'\x00\x00\x80?'
p741
tp742
Rp743
tp744
a(g6
(g10
S'T\x00\x00\x00\x00\x00\x00\x00'
p745
tp746
Rp747
g6
(g18
S'\x00\x00\x80?'
p748
tp749
Rp750
tp751
a(g6
(g10
S'U\x00\x00\x00\x00\x00\x00\x00'
p752
tp753
Rp754
g6
(g18
S'\x00\x00\x80?'
p755
tp756
Rp757
tp758
a(g329
g6
(g18
S'\x00\x00\x80?'
p759
tp760
Rp761
tp762
as(I20
g53
g91
tp763
(lp764
(g15
g6
(g18
S'\x01\x00\x80?'
p765
tp766
Rp767
tp768
a(g166
g6
(g18
S'\x07\x02r?'
p769
tp770
Rp771
tp772
a(g27
g6
(g18
S'\x84\xa7q?'
p773
tp774
Rp775
tp776
a(g118
g6
(g18
S'\x0e\xb3m?'
p777
tp778
Rp779
tp780
a(g629
g6
(g18
S'=\x8al?'
p781
tp782
Rp783
tp784
as(I20
g269
I10
tp785
(lp786
(g509
g6
(g18
S'\x00\x00\x80?'
p787
tp788
Rp789
tp790
a(g516
g6
(g18
S'\x00\x00\x80?'
p791
tp792
Rp793
tp794
a(g6
(g10
S'.\x00\x00\x00\x00\x00\x00\x00'
p795
tp796
Rp797
g6
(g18
S'\x00\x00\x80?'
p798
tp799
Rp800
tp801
a(g551
g6
(g18
S'\x00\x00\x80?'
p802
tp803
Rp804
tp805
a(g558
g6
(g18
S'\x00\x00\x80?'
p806
tp807
Rp808
tp809
as(I18
I10
I3
tp810
(lp811
(g15
g6
(g18
S'\x00\x00\x80?'
p812
tp813
Rp814
tp815
a(g424
g6
(g18
S'\x17\xe2}?'
p816
tp817
Rp818
tp819
a(g6
(g10
S'a\x05\x00\x00\x00\x00\x00\x00'
p820
tp821
Rp822
g6
(g18
S'\xf2Z}?'
p823
tp824
Rp825
tp826
a(g6
(g10
S'\x8b\x06\x00\x00\x00\x00\x00\x00'
p827
tp828
Rp829
g6
(g18
S'\xda@}?'
p830
tp831
Rp832
tp833
a(g211
g6
(g18
S'\xc1\x92|?'
p834
tp835
Rp836
tp837
as(I20
I3
I1
tp838
(lp839
(g15
g6
(g18
S'\xff\xff\x7f?'
p840
tp841
Rp842
tp843
a(g27
g6
(g18
S'\xfc\xe4}?'
p844
tp845
Rp846
tp847
a(g166
g6
(g18
S'\xe0\x81|?'
p848
tp849
Rp850
tp851
a(g424
g6
(g18
S':T{?'
p852
tp853
Rp854
tp855
a(g365
g6
(g18
S'w\xd1s?'
p856
tp857
Rp858
tp859
as(I25
I3
I10
tp860
(lp861
(g6
(g10
S'\xc5\x00\x00\x00\x00\x00\x00\x00'
p862
tp863
Rp864
g6
(g18
S'\x00\x00\x80?'
p865
tp866
Rp867
tp868
a(g6
(g10
S'\xe7\x01\x00\x00\x00\x00\x00\x00'
p869
tp870
Rp871
g6
(g18
S'\x00\x00\x80?'
p872
tp873
Rp874
tp875
a(g6
(g10
S' \x04\x00\x00\x00\x00\x00\x00'
p876
tp877
Rp878
g6
(g18
S'\x00\x00\x80?'
p879
tp880
Rp881
tp882
a(g15
g6
(g18
S'\xff\xff\x7f?'
p883
tp884
Rp885
tp886
a(g6
(g10
S'\xa2\x06\x00\x00\x00\x00\x00\x00'
p887
tp888
Rp889
g6
(g18
S'\xff\xff\x7f?'
p890
tp891
Rp892
tp893
as(I18
I10
g91
tp894
(lp895
(g15
g6
(g18
S'\x00\x00\x80?'
p896
tp897
Rp898
tp899
a(g228
g6
(g18
S'\xff\xec\x7f?'
p900
tp901
Rp902
tp903
a(g6
(g10
S'\xb6\x07\x00\x00\x00\x00\x00\x00'
p904
tp905
Rp906
g6
(g18
S'\r\xe5\x7f?'
p907
tp908
Rp909
tp910
a(g6
(g10
S'\x10\x04\x00\x00\x00\x00\x00\x00'
p911
tp912
Rp913
g6
(g18
S'\xae\xd8\x7f?'
p914
tp915
Rp916
tp917
a(g417
g6
(g18
S'\xabw\x7f?'
p918
tp919
Rp920
tp921
as(I25
g91
I1
tp922
(lp923
(g15
g6
(g18
S'\xff\xff\x7f?'
p924
tp925
Rp926
tp927
a(g111
g6
(g18
S'S\xca~?'
p928
tp929
Rp930
tp931
a(g100
g6
(g18
S'\xad\xbe~?'
p932
tp933
Rp934
tp935
a(g27
g6
(g18
S'\x84]~?'
p936
tp937
Rp938
tp939
a(g118
g6
(g18
S'\xdf>~?'
p940
tp941
Rp942
tp943
as(I18
I3
I3
tp944
(lp945
(g15
g6
(g18
S'\x00\x00\x80?'
p946
tp947
Rp948
tp949
a(g6
(g10
S'\x97\x06\x00\x00\x00\x00\x00\x00'
p950
tp951
Rp952
g6
(g18
S'j_\x7f?'
p953
tp954
Rp955
tp956
a(g166
g6
(g18
S'>u~?'
p957
tp958
Rp959
tp960
a(g111
g6
(g18
S'=c~?'
p961
tp962
Rp963
tp964
a(g6
(g10
S'\x87\x01\x00\x00\x00\x00\x00\x00'
p965
tp966
Rp967
g6
(g18
S'\xa7-~?'
p968
tp969
Rp970
tp971
as(I20
I10
g91
tp972
(lp973
(g15
g6
(g18
S'\x00\x00\x80?'
p974
tp975
Rp976
tp977
a(g228
g6
(g18
S',\xda\x7f?'
p978
tp979
Rp980
tp981
a(g551
g6
(g18
S'\xde\xc6\x7f?'
p982
tp983
Rp984
tp985
a(g6
(g10
S'\xae\x06\x00\x00\x00\x00\x00\x00'
p986
tp987
Rp988
g6
(g18
S'x\xb8\x7f?'
p989
tp990
Rp991
tp992
a(g242
g6
(g18
S'\xf4\xa7\x7f?'
p993
tp994
Rp995
tp996
as(I40
g53
F0.3
tp997
(lp998
(g15
g6
(g18
S'\xff\xff\x7f?'
p999
tp1000
Rp1001
tp1002
a(g27
g6
(g18
S'\x8b\x8b{?'
p1003
tp1004
Rp1005
tp1006
a(g166
g6
(g18
S'\xc4\x01x?'
p1007
tp1008
Rp1009
tp1010
a(g111
g6
(g18
S'\xbf\xb6t?'
p1011
tp1012
Rp1013
tp1014
a(g6
(g10
S'\xb9\x08\x00\x00\x00\x00\x00\x00'
p1015
tp1016
Rp1017
g6
(g18
S'n\xa4r?'
p1018
tp1019
Rp1020
tp1021
as(I18
I10
I1
tp1022
(lp1023
(g15
g6
(g18
S'\xff\xff\x7f?'
p1024
tp1025
Rp1026
tp1027
a(g193
g6
(g18
S'_\x0b}?'
p1028
tp1029
Rp1030
tp1031
a(g111
g6
(g18
S'\x12\xff|?'
p1032
tp1033
Rp1034
tp1035
a(g424
g6
(g18
S'\xb2n{?'
p1036
tp1037
Rp1038
tp1039
a(g166
g6
(g18
S'\xaeZ{?'
p1040
tp1041
Rp1042
tp1043
as(I25
g91
g91
tp1044
(lp1045
(g15
g6
(g18
S'\x00\x00\x80?'
p1046
tp1047
Rp1048
tp1049
a(g27
g6
(g18
S'\xa5nv?'
p1050
tp1051
Rp1052
tp1053
a(g173
g6
(g18
S'\xaf\x12v?'
p1054
tp1055
Rp1056
tp1057
a(g365
g6
(g18
S'=\xcbt?'
p1058
tp1059
Rp1060
tp1061
a(g424
g6
(g18
S'\x94Je?'
p1062
tp1063
Rp1064
tp1065
as(I18
g53
g91
tp1066
(lp1067
(g15
g6
(g18
S'\xff\xff\x7f?'
p1068
tp1069
Rp1070
tp1071
a(g166
g6
(g18
S'\xdc\xde\x7f?'
p1072
tp1073
Rp1074
tp1075
a(g952
g6
(g18
S'\x04y\x7f?'
p1076
tp1077
Rp1078
tp1079
a(g41
g6
(g18
S'F\xb8}?'
p1080
tp1081
Rp1082
tp1083
a(g111
g6
(g18
S'\x87\xa5}?'
p1084
tp1085
Rp1086
tp1087
as(I25
g91
I3
tp1088
(lp1089
(g58
g6
(g18
S'\x00\x00\x80?'
p1090
tp1091
Rp1092
tp1093
a(g65
g6
(g18
S'\x00\x00\x80?'
p1094
tp1095
Rp1096
tp1097
a(g72
g6
(g18
S'\x00\x00\x80?'
p1098
tp1099
Rp1100
tp1101
a(g6
(g10
S'\xab\x00\x00\x00\x00\x00\x00\x00'
p1102
tp1103
Rp1104
g6
(g18
S'\x00\x00\x80?'
p1105
tp1106
Rp1107
tp1108
a(g6
(g10
S'\xc9\x00\x00\x00\x00\x00\x00\x00'
p1109
tp1110
Rp1111
g6
(g18
S'\x00\x00\x80?'
p1112
tp1113
Rp1114
tp1115
as(I18
g53
I1
tp1116
(lp1117
(g15
g6
(g18
S'\x00\x00\x80?'
p1118
tp1119
Rp1120
tp1121
a(g6
(g10
S'\x82\x01\x00\x00\x00\x00\x00\x00'
p1122
tp1123
Rp1124
g6
(g18
S'$\xfc\x7f?'
p1125
tp1126
Rp1127
tp1128
a(g135
g6
(g18
S';\xed\x7f?'
p1129
tp1130
Rp1131
tp1132
a(g286
g6
(g18
S'\xc6\xb4\x7f?'
p1133
tp1134
Rp1135
tp1136
a(g111
g6
(g18
S'\x17\x91\x7f?'
p1137
tp1138
Rp1139
tp1140
as(I30
g91
I10
tp1141
(lp1142
(g502
g6
(g18
S'\x00\x00\x80?'
p1143
tp1144
Rp1145
tp1146
a(g509
g6
(g18
S'\x00\x00\x80?'
p1147
tp1148
Rp1149
tp1150
a(g516
g6
(g18
S'\x00\x00\x80?'
p1151
tp1152
Rp1153
tp1154
a(g6
(g10
S'\x1c\x00\x00\x00\x00\x00\x00\x00'
p1155
tp1156
Rp1157
g6
(g18
S'\x00\x00\x80?'
p1158
tp1159
Rp1160
tp1161
a(g523
g6
(g18
S'\x00\x00\x80?'
p1162
tp1163
Rp1164
tp1165
as(I40
g269
I10
tp1166
(lp1167
(g6
(g10
S'\x10\x00\x00\x00\x00\x00\x00\x00'
p1168
tp1169
Rp1170
g6
(g18
S'\x00\x00\x80?'
p1171
tp1172
Rp1173
tp1174
a(g509
g6
(g18
S'\x00\x00\x80?'
p1175
tp1176
Rp1177
tp1178
a(g516
g6
(g18
S'\x00\x00\x80?'
p1179
tp1180
Rp1181
tp1182
a(g797
g6
(g18
S'\x00\x00\x80?'
p1183
tp1184
Rp1185
tp1186
a(g551
g6
(g18
S'\x00\x00\x80?'
p1187
tp1188
Rp1189
tp1190
as(I40
I1
I10
tp1191
(lp1192
(g15
g6
(g18
S'\x00\x00\x80?'
p1193
tp1194
Rp1195
tp1196
a(g6
(g10
S':\x08\x00\x00\x00\x00\x00\x00'
p1197
tp1198
Rp1199
g6
(g18
S'\xff\xff\x7f?'
p1200
tp1201
Rp1202
tp1203
a(g6
(g10
S'\x12\x06\x00\x00\x00\x00\x00\x00'
p1204
tp1205
Rp1206
g6
(g18
S'\xf6\xff\x7f?'
p1207
tp1208
Rp1209
tp1210
a(g389
g6
(g18
S'\xda\xff\x7f?'
p1211
tp1212
Rp1213
tp1214
a(g6
(g10
S'B\x07\x00\x00\x00\x00\x00\x00'
p1215
tp1216
Rp1217
g6
(g18
S'w\xff\x7f?'
p1218
tp1219
Rp1220
tp1221
as(I40
I3
I3
tp1222
(lp1223
(g15
g6
(g18
S'\x00\x00\x80?'
p1224
tp1225
Rp1226
tp1227
a(g204
g6
(g18
S'\x05\xfb\x7f?'
p1228
tp1229
Rp1230
tp1231
a(g467
g6
(g18
S'\xa0\xfa\x7f?'
p1232
tp1233
Rp1234
tp1235
a(g6
(g10
S')\x05\x00\x00\x00\x00\x00\x00'
p1236
tp1237
Rp1238
g6
(g18
S'R\xfa\x7f?'
p1239
tp1240
Rp1241
tp1242
a(g605
g6
(g18
S'[\xf8\x7f?'
p1243
tp1244
Rp1245
tp1246
as(I18
g53
I3
tp1247
(lp1248
(g58
g6
(g18
S'\x00\x00\x80?'
p1249
tp1250
Rp1251
tp1252
a(g65
g6
(g18
S'\x00\x00\x80?'
p1253
tp1254
Rp1255
tp1256
a(g329
g6
(g18
S'\x00\x00\x80?'
p1257
tp1258
Rp1259
tp1260
a(g72
g6
(g18
S'\x00\x00\x80?'
p1261
tp1262
Rp1263
tp1264
a(g6
(g10
S'n\x00\x00\x00\x00\x00\x00\x00'
p1265
tp1266
Rp1267
g6
(g18
S'\x00\x00\x80?'
p1268
tp1269
Rp1270
tp1271
as(I20
g91
I1
tp1272
(lp1273
(g118
g6
(g18
S'\x00\x00\x80?'
p1274
tp1275
Rp1276
tp1277
a(g27
g6
(g18
S'\x00\x00\x80?'
p1278
tp1279
Rp1280
tp1281
a(g15
g6
(g18
S'\x00\x00\x80?'
p1282
tp1283
Rp1284
tp1285
a(g166
g6
(g18
S'\x00\x00\x80?'
p1286
tp1287
Rp1288
tp1289
a(g193
g6
(g18
S'\x00\x00\x80?'
p1290
tp1291
Rp1292
tp1293
as(I40
I3
g91
tp1294
(lp1295
(g15
g6
(g18
S'\x00\x00\x80?'
p1296
tp1297
Rp1298
tp1299
a(g618
g6
(g18
S'\x8c\xbcs?'
p1300
tp1301
Rp1302
tp1303
a(g629
g6
(g18
S'\x96Ys?'
p1304
tp1305
Rp1306
tp1307
a(g6
(g10
S'@\x00\x00\x00\x00\x00\x00\x00'
p1308
tp1309
Rp1310
g6
(g18
S'\xe8Us?'
p1311
tp1312
Rp1313
tp1314
a(g242
g6
(g18
S'\xb3\xfbq?'
p1315
tp1316
Rp1317
tp1318
as(I20
g91
g91
tp1319
(lp1320
(g15
g6
(g18
S'\x00\x00\x80?'
p1321
tp1322
Rp1323
tp1324
a(g354
g6
(g18
S'8\x9a{?'
p1325
tp1326
Rp1327
tp1328
a(g149
g6
(g18
S'\xccwz?'
p1329
tp1330
Rp1331
tp1332
a(g34
g6
(g18
S'\xf4\x11z?'
p1333
tp1334
Rp1335
tp1336
a(g6
(g10
S'\x14\x08\x00\x00\x00\x00\x00\x00'
p1337
tp1338
Rp1339
g6
(g18
S'\x0f\xcey?'
p1340
tp1341
Rp1342
tp1343
as(I40
I3
I1
tp1344
(lp1345
(g15
g6
(g18
S'\xff\xff\x7f?'
p1346
tp1347
Rp1348
tp1349
a(g467
g6
(g18
S'\x1b4\x7f?'
p1350
tp1351
Rp1352
tp1353
a(g118
g6
(g18
S'/\x95~?'
p1354
tp1355
Rp1356
tp1357
a(g605
g6
(g18
S'\x8aR~?'
p1358
tp1359
Rp1360
tp1361
a(g228
g6
(g18
S'\xfb-~?'
p1362
tp1363
Rp1364
tp1365
as(I18
g269
F0.3
tp1366
(lp1367
(g15
g6
(g18
S'\x00\x00\x80?'
p1368
tp1369
Rp1370
tp1371
a(g166
g6
(g18
S'\x1e\nx?'
p1372
tp1373
Rp1374
tp1375
a(g118
g6
(g18
S'/\tm?'
p1376
tp1377
Rp1378
tp1379
a(g618
g6
(g18
S'\xb3\xbee?'
p1380
tp1381
Rp1382
tp1383
a(g111
g6
(g18
S'\xc4rb?'
p1384
tp1385
Rp1386
tp1387
as(I20
g91
I3
tp1388
(lp1389
(g15
g6
(g18
S'\x00\x00\x80?'
p1390
tp1391
Rp1392
tp1393
a(g6
(g10
S'\xa4\x02\x00\x00\x00\x00\x00\x00'
p1394
tp1395
Rp1396
g6
(g18
S'\xce\xf8\x7f?'
p1397
tp1398
Rp1399
tp1400
a(g27
g6
(g18
S'\xa4\xf7\x7f?'
p1401
tp1402
Rp1403
tp1404
a(g6
(g10
S'\xde\x00\x00\x00\x00\x00\x00\x00'
p1405
tp1406
Rp1407
g6
(g18
S'"\xee\x7f?'
p1408
tp1409
Rp1410
tp1411
a(g6
(g10
S'\xe6\x07\x00\x00\x00\x00\x00\x00'
p1412
tp1413
Rp1414
g6
(g18
S'l\xe4\x7f?'
p1415
tp1416
Rp1417
tp1418
as(I30
g269
I10
tp1419
(lp1420
(g502
g6
(g18
S'\x00\x00\x80?'
p1421
tp1422
Rp1423
tp1424
a(g509
g6
(g18
S'\x00\x00\x80?'
p1425
tp1426
Rp1427
tp1428
a(g516
g6
(g18
S'\x00\x00\x80?'
p1429
tp1430
Rp1431
tp1432
a(g1157
g6
(g18
S'\x00\x00\x80?'
p1433
tp1434
Rp1435
tp1436
a(g523
g6
(g18
S'\x00\x00\x80?'
p1437
tp1438
Rp1439
tp1440
as(I40
I10
g91
tp1441
(lp1442
(g6
(g10
S'\xc7\x05\x00\x00\x00\x00\x00\x00'
p1443
tp1444
Rp1445
g6
(g18
S'\x01\x00\x80?'
p1446
tp1447
Rp1448
tp1449
a(g6
(g10
S'y\x07\x00\x00\x00\x00\x00\x00'
p1450
tp1451
Rp1452
g6
(g18
S'\x01\x00\x80?'
p1453
tp1454
Rp1455
tp1456
a(g6
(g10
S'\x01\x00\x00\x00\x00\x00\x00\x00'
p1457
tp1458
Rp1459
g6
(g18
S'\x00\x00\x80?'
p1460
tp1461
Rp1462
tp1463
a(g6
(g10
S'\x02\x00\x00\x00\x00\x00\x00\x00'
p1464
tp1465
Rp1466
g6
(g18
S'\x00\x00\x80?'
p1467
tp1468
Rp1469
tp1470
a(g502
g6
(g18
S'\x00\x00\x80?'
p1471
tp1472
Rp1473
tp1474
as(I25
g269
I3
tp1475
(lp1476
(g58
g6
(g18
S'\x00\x00\x80?'
p1477
tp1478
Rp1479
tp1480
a(g65
g6
(g18
S'\x00\x00\x80?'
p1481
tp1482
Rp1483
tp1484
a(g329
g6
(g18
S'\x00\x00\x80?'
p1485
tp1486
Rp1487
tp1488
a(g72
g6
(g18
S'\x00\x00\x80?'
p1489
tp1490
Rp1491
tp1492
a(g6
(g10
S'p\x00\x00\x00\x00\x00\x00\x00'
p1493
tp1494
Rp1495
g6
(g18
S'\x00\x00\x80?'
p1496
tp1497
Rp1498
tp1499
as(I25
g269
I1
tp1500
(lp1501
(g15
g6
(g18
S'\x00\x00\x80?'
p1502
tp1503
Rp1504
tp1505
a(g100
g6
(g18
S'\xb6\xff\x7f?'
p1506
tp1507
Rp1508
tp1509
a(g111
g6
(g18
S'}\xe1\x7f?'
p1510
tp1511
Rp1512
tp1513
a(g286
g6
(g18
S'\xa2\xdd\x7f?'
p1514
tp1515
Rp1516
tp1517
a(g1124
g6
(g18
S'T\xc0\x7f?'
p1518
tp1519
Rp1520
tp1521
as(I25
g53
F0.3
tp1522
(lp1523
(g15
g6
(g18
S'\xff\xff\x7f?'
p1524
tp1525
Rp1526
tp1527
a(g166
g6
(g18
S'\xda\xa9z?'
p1528
tp1529
Rp1530
tp1531
a(g41
g6
(g18
S'D1z?'
p1532
tp1533
Rp1534
tp1535
a(g952
g6
(g18
S'\xbbFy?'
p1536
tp1537
Rp1538
tp1539
a(g6
(g10
S'\x98\x04\x00\x00\x00\x00\x00\x00'
p1540
tp1541
Rp1542
g6
(g18
S',#y?'
p1543
tp1544
Rp1545
tp1546
as(I40
g91
I1
tp1547
(lp1548
(g15
g6
(g18
S'\xff\xff\x7f?'
p1549
tp1550
Rp1551
tp1552
a(g111
g6
(g18
S'\x05\xbc~?'
p1553
tp1554
Rp1555
tp1556
a(g6
(g10
S'\xcc\x06\x00\x00\x00\x00\x00\x00'
p1557
tp1558
Rp1559
g6
(g18
S'\x9c1~?'
p1560
tp1561
Rp1562
tp1563
a(g27
g6
(g18
S'H\xee|?'
p1564
tp1565
Rp1566
tp1567
a(g1017
g6
(g18
S'\x95\xf8{?'
p1568
tp1569
Rp1570
tp1571
as(I25
g269
F0.3
tp1572
(lp1573
(g15
g6
(g18
S'\xff\xff\x7f?'
p1574
tp1575
Rp1576
tp1577
a(g135
g6
(g18
S'#;}?'
p1578
tp1579
Rp1580
tp1581
a(g166
g6
(g18
S'_\x9by?'
p1582
tp1583
Rp1584
tp1585
a(g6
(g10
S'n\x06\x00\x00\x00\x00\x00\x00'
p1586
tp1587
Rp1588
g6
(g18
S'\x7f8w?'
p1589
tp1590
Rp1591
tp1592
a(g6
(g10
S'}\x01\x00\x00\x00\x00\x00\x00'
p1593
tp1594
Rp1595
g6
(g18
S'\x1fZv?'
p1596
tp1597
Rp1598
tp1599
as(I30
I3
I10
tp1600
(lp1601
(g15
g6
(g18
S'\x01\x00\x80?'
p1602
tp1603
Rp1604
tp1605
a(g864
g6
(g18
S'\x00\x00\x80?'
p1606
tp1607
Rp1608
tp1609
a(g6
(g10
S'\xe2\x02\x00\x00\x00\x00\x00\x00'
p1610
tp1611
Rp1612
g6
(g18
S'\x00\x00\x80?'
p1613
tp1614
Rp1615
tp1616
a(g6
(g10
S'\xfd\x05\x00\x00\x00\x00\x00\x00'
p1617
tp1618
Rp1619
g6
(g18
S'\x00\x00\x80?'
p1620
tp1621
Rp1622
tp1623
a(g6
(g10
S'\x05\x06\x00\x00\x00\x00\x00\x00'
p1624
tp1625
Rp1626
g6
(g18
S'\x00\x00\x80?'
p1627
tp1628
Rp1629
tp1630
as(I30
I1
I3
tp1631
(lp1632
(g15
g6
(g18
S'\x00\x00\x80?'
p1633
tp1634
Rp1635
tp1636
a(g111
g6
(g18
S'\x8d\xff\x7f?'
p1637
tp1638
Rp1639
tp1640
a(g118
g6
(g18
S'N\xff\x7f?'
p1641
tp1642
Rp1643
tp1644
a(g467
g6
(g18
S'\n\xfe\x7f?'
p1645
tp1646
Rp1647
tp1648
a(g6
(g10
S'\xc0\x06\x00\x00\x00\x00\x00\x00'
p1649
tp1650
Rp1651
g6
(g18
S'\xf4\xfd\x7f?'
p1652
tp1653
Rp1654
tp1655
as(I20
g53
I3
tp1656
(lp1657
(g58
g6
(g18
S'\x00\x00\x80?'
p1658
tp1659
Rp1660
tp1661
a(g65
g6
(g18
S'\x00\x00\x80?'
p1662
tp1663
Rp1664
tp1665
a(g329
g6
(g18
S'\x00\x00\x80?'
p1666
tp1667
Rp1668
tp1669
a(g72
g6
(g18
S'\x00\x00\x80?'
p1670
tp1671
Rp1672
tp1673
a(g79
g6
(g18
S'\x00\x00\x80?'
p1674
tp1675
Rp1676
tp1677
as(I40
g91
I3
tp1678
(lp1679
(g58
g6
(g18
S'\x00\x00\x80?'
p1680
tp1681
Rp1682
tp1683
a(g65
g6
(g18
S'\x00\x00\x80?'
p1684
tp1685
Rp1686
tp1687
a(g329
g6
(g18
S'\x00\x00\x80?'
p1688
tp1689
Rp1690
tp1691
a(g72
g6
(g18
S'\x00\x00\x80?'
p1692
tp1693
Rp1694
tp1695
a(g1267
g6
(g18
S'\x00\x00\x80?'
p1696
tp1697
Rp1698
tp1699
as(I25
g53
I10
tp1700
(lp1701
(g502
g6
(g18
S'\x00\x00\x80?'
p1702
tp1703
Rp1704
tp1705
a(g509
g6
(g18
S'\x00\x00\x80?'
p1706
tp1707
Rp1708
tp1709
a(g516
g6
(g18
S'\x00\x00\x80?'
p1710
tp1711
Rp1712
tp1713
a(g523
g6
(g18
S'\x00\x00\x80?'
p1714
tp1715
Rp1716
tp1717
a(g530
g6
(g18
S'\x00\x00\x80?'
p1718
tp1719
Rp1720
tp1721
as(I30
I1
I1
tp1722
(lp1723
(g15
g6
(g18
S'\x00\x00\x80?'
p1724
tp1725
Rp1726
tp1727
a(g467
g6
(g18
S'\x15\xc2~?'
p1728
tp1729
Rp1730
tp1731
a(g6
(g10
S's\x08\x00\x00\x00\x00\x00\x00'
p1732
tp1733
Rp1734
g6
(g18
S'j\xec}?'
p1735
tp1736
Rp1737
tp1738
a(g1124
g6
(g18
S'O\xdb}?'
p1739
tp1740
Rp1741
tp1742
a(g118
g6
(g18
S'v\xc7}?'
p1743
tp1744
Rp1745
tp1746
as(I20
g53
I1
tp1747
(lp1748
(g15
g6
(g18
S'\x00\x00\x80?'
p1749
tp1750
Rp1751
tp1752
a(g6
(g10
S'\x06\x05\x00\x00\x00\x00\x00\x00'
p1753
tp1754
Rp1755
g6
(g18
S' +}?'
p1756
tp1757
Rp1758
tp1759
a(g48
g6
(g18
S'*\x84|?'
p1760
tp1761
Rp1762
tp1763
a(g6
(g10
S'\xa7\x03\x00\x00\x00\x00\x00\x00'
p1764
tp1765
Rp1766
g6
(g18
S';X|?'
p1767
tp1768
Rp1769
tp1770
a(g1104
g6
(g18
S'\x01\xbf{?'
p1771
tp1772
Rp1773
tp1774
as(I20
I3
g91
tp1775
(lp1776
(g15
g6
(g18
S'\x00\x00\x80?'
p1777
tp1778
Rp1779
tp1780
a(g166
g6
(g18
S'6\t\x7f?'
p1781
tp1782
Rp1783
tp1784
a(g27
g6
(g18
S'\x89\xad~?'
p1785
tp1786
Rp1787
tp1788
a(g211
g6
(g18
S'\xdd\x94w?'
p1789
tp1790
Rp1791
tp1792
a(g204
g6
(g18
S'\x16\xcbv?'
p1793
tp1794
Rp1795
tp1796
as(I40
g91
F0.3
tp1797
(lp1798
(g15
g6
(g18
S'\x00\x00\x80?'
p1799
tp1800
Rp1801
tp1802
a(g100
g6
(g18
S'3\xae|?'
p1803
tp1804
Rp1805
tp1806
a(g118
g6
(g18
S'0\xb2{?'
p1807
tp1808
Rp1809
tp1810
a(g6
(g10
S's\x06\x00\x00\x00\x00\x00\x00'
p1811
tp1812
Rp1813
g6
(g18
S'\xb3s{?'
p1814
tp1815
Rp1816
tp1817
a(g242
g6
(g18
S'\x00[{?'
p1818
tp1819
Rp1820
tp1821
as(I18
g53
F0.3
tp1822
(lp1823
(g15
g6
(g18
S'\x00\x00\x80?'
p1824
tp1825
Rp1826
tp1827
a(g193
g6
(g18
S'\xc0\xc9~?'
p1828
tp1829
Rp1830
tp1831
a(g111
g6
(g18
S'G\x17|?'
p1832
tp1833
Rp1834
tp1835
a(g1017
g6
(g18
S'\x05\xc6{?'
p1836
tp1837
Rp1838
tp1839
a(g235
g6
(g18
S'\xd8({?'
p1840
tp1841
Rp1842
tp1843
as(I30
I1
F0.3
tp1844
(lp1845
(g15
g6
(g18
S'\xff\xff\x7f?'
p1846
tp1847
Rp1848
tp1849
a(g27
g6
(g18
S'<,|?'
p1850
tp1851
Rp1852
tp1853
a(g111
g6
(g18
S's\x12y?'
p1854
tp1855
Rp1856
tp1857
a(g166
g6
(g18
S'5\xd8x?'
p1858
tp1859
Rp1860
tp1861
a(g173
g6
(g18
S'Z\xacx?'
p1862
tp1863
Rp1864
tp1865
as(I20
I10
I1
tp1866
(lp1867
(g15
g6
(g18
S'\x00\x00\x80?'
p1868
tp1869
Rp1870
tp1871
a(g111
g6
(g18
S'`j}?'
p1872
tp1873
Rp1874
tp1875
a(g382
g6
(g18
S'\x96\xc0|?'
p1876
tp1877
Rp1878
tp1879
a(g424
g6
(g18
S'\x86\xcb{?'
p1880
tp1881
Rp1882
tp1883
a(g629
g6
(g18
S'\xf4\x12{?'
p1884
tp1885
Rp1886
tp1887
as(I25
I1
g91
tp1888
(lp1889
(g15
g6
(g18
S'\xff\xff\x7f?'
p1890
tp1891
Rp1892
tp1893
a(g365
g6
(g18
S'\xb6Ni?'
p1894
tp1895
Rp1896
tp1897
a(g173
g6
(g18
S'%vg?'
p1898
tp1899
Rp1900
tp1901
a(g27
g6
(g18
S'\xf3@g?'
p1902
tp1903
Rp1904
tp1905
a(g135
g6
(g18
S'Y\x15b?'
p1906
tp1907
Rp1908
tp1909
as(I25
I1
I1
tp1910
(lp1911
(g15
g6
(g18
S'\x00\x00\x80?'
p1912
tp1913
Rp1914
tp1915
a(g27
g6
(g18
S'6!~?'
p1916
tp1917
Rp1918
tp1919
a(g365
g6
(g18
S'\xea\xefy?'
p1920
tp1921
Rp1922
tp1923
a(g6
(g10
S'\xf1\x03\x00\x00\x00\x00\x00\x00'
p1924
tp1925
Rp1926
g6
(g18
S'\x89\x04x?'
p1927
tp1928
Rp1929
tp1930
a(g34
g6
(g18
S'\x02\xdat?'
p1931
tp1932
Rp1933
tp1934
as(I20
I10
I3
tp1935
(lp1936
(g15
g6
(g18
S'\x00\x00\x80?'
p1937
tp1938
Rp1939
tp1940
a(g6
(g10
S'\x0f\x02\x00\x00\x00\x00\x00\x00'
p1941
tp1942
Rp1943
g6
(g18
S'\x91\x96\x7f?'
p1944
tp1945
Rp1946
tp1947
a(g829
g6
(g18
S'\xb2\xa8~?'
p1948
tp1949
Rp1950
tp1951
a(g509
g6
(g18
S'\xca\xf2}?'
p1952
tp1953
Rp1954
tp1955
a(g193
g6
(g18
S'\xa5\xd4}?'
p1956
tp1957
Rp1958
tp1959
as(I30
g53
I10
tp1960
(lp1961
(g502
g6
(g18
S'\x00\x00\x80?'
p1962
tp1963
Rp1964
tp1965
a(g509
g6
(g18
S'\x00\x00\x80?'
p1966
tp1967
Rp1968
tp1969
a(g516
g6
(g18
S'\x00\x00\x80?'
p1970
tp1971
Rp1972
tp1973
a(g523
g6
(g18
S'\x00\x00\x80?'
p1974
tp1975
Rp1976
tp1977
a(g530
g6
(g18
S'\x00\x00\x80?'
p1978
tp1979
Rp1980
tp1981
as(I40
g53
I3
tp1982
(lp1983
(g509
g6
(g18
S'\x00\x00\x80?'
p1984
tp1985
Rp1986
tp1987
a(g58
g6
(g18
S'\x00\x00\x80?'
p1988
tp1989
Rp1990
tp1991
a(g65
g6
(g18
S'\x00\x00\x80?'
p1992
tp1993
Rp1994
tp1995
a(g329
g6
(g18
S'\x00\x00\x80?'
p1996
tp1997
Rp1998
tp1999
a(g72
g6
(g18
S'\x00\x00\x80?'
p2000
tp2001
Rp2002
tp2003
as(I25
I1
I3
tp2004
(lp2005
(g15
g6
(g18
S'\x00\x00\x80?'
p2006
tp2007
Rp2008
tp2009
a(g6
(g10
S'\xa7\x04\x00\x00\x00\x00\x00\x00'
p2010
tp2011
Rp2012
g6
(g18
S'j\xf5\x7f?'
p2013
tp2014
Rp2015
tp2016
a(g118
g6
(g18
S'\xbf\xc3\x7f?'
p2017
tp2018
Rp2019
tp2020
a(g135
g6
(g18
S'K\xa6\x7f?'
p2021
tp2022
Rp2023
tp2024
a(g675
g6
(g18
S'T\x8d\x7f?'
p2025
tp2026
Rp2027
tp2028
as(I18
g269
I10
tp2029
(lp2030
(g509
g6
(g18
S'\x00\x00\x80?'
p2031
tp2032
Rp2033
tp2034
a(g516
g6
(g18
S'\x00\x00\x80?'
p2035
tp2036
Rp2037
tp2038
a(g797
g6
(g18
S'\x00\x00\x80?'
p2039
tp2040
Rp2041
tp2042
a(g551
g6
(g18
S'\x00\x00\x80?'
p2043
tp2044
Rp2045
tp2046
a(g558
g6
(g18
S'\x00\x00\x80?'
p2047
tp2048
Rp2049
tp2050
as(I40
g53
g91
tp2051
(lp2052
(g15
g6
(g18
S'\x00\x00\x80?'
p2053
tp2054
Rp2055
tp2056
a(g111
g6
(g18
S'|\xe1i?'
p2057
tp2058
Rp2059
tp2060
a(g27
g6
(g18
S'\xde\x91h?'
p2061
tp2062
Rp2063
tp2064
a(g166
g6
(g18
S'\xb1\x05e?'
p2065
tp2066
Rp2067
tp2068
a(g211
g6
(g18
S'\xb8\x8ed?'
p2069
tp2070
Rp2071
tp2072
as(I18
I10
F0.3
tp2073
(lp2074
(g15
g6
(g18
S'\x00\x00\x80?'
p2075
tp2076
Rp2077
tp2078
a(g118
g6
(g18
S'\xc0\xdav?'
p2079
tp2080
Rp2081
tp2082
a(g6
(g10
S'\xe8\x07\x00\x00\x00\x00\x00\x00'
p2083
tp2084
Rp2085
g6
(g18
S'\xf0\x11u?'
p2086
tp2087
Rp2088
tp2089
a(g365
g6
(g18
S'v\x9es?'
p2090
tp2091
Rp2092
tp2093
a(g6
(g10
S'z\x06\x00\x00\x00\x00\x00\x00'
p2094
tp2095
Rp2096
g6
(g18
S'\xf6bs?'
p2097
tp2098
Rp2099
tp2100
as(I40
g53
I1
tp2101
(lp2102
(g15
g6
(g18
S'\x00\x00\x80?'
p2103
tp2104
Rp2105
tp2106
a(g27
g6
(g18
S'l\xe3\x7f?'
p2107
tp2108
Rp2109
tp2110
a(g551
g6
(g18
S'l\xd1\x7f?'
p2111
tp2112
Rp2113
tp2114
a(g467
g6
(g18
S'*\xcd\x7f?'
p2115
tp2116
Rp2117
tp2118
a(g1017
g6
(g18
S'\x83\xc7\x7f?'
p2119
tp2120
Rp2121
tp2122
as(I20
I1
g91
tp2123
(lp2124
(g15
g6
(g18
S'\x00\x00\x80?'
p2125
tp2126
Rp2127
tp2128
a(g27
g6
(g18
S'D\xedw?'
p2129
tp2130
Rp2131
tp2132
a(g1813
g6
(g18
S'\x96\xadq?'
p2133
tp2134
Rp2135
tp2136
a(g149
g6
(g18
S'l1q?'
p2137
tp2138
Rp2139
tp2140
a(g135
g6
(g18
S'r\xddo?'
p2141
tp2142
Rp2143
tp2144
as(I20
I1
I1
tp2145
(lp2146
(g15
g6
(g18
S'\x00\x00\x80?'
p2147
tp2148
Rp2149
tp2150
a(g41
g6
(g18
S'\xbc\xccz?'
p2151
tp2152
Rp2153
tp2154
a(g34
g6
(g18
S'\xb6Jy?'
p2155
tp2156
Rp2157
tp2158
a(g1124
g6
(g18
S'$qx?'
p2159
tp2160
Rp2161
tp2162
a(g6
(g10
S'k\x01\x00\x00\x00\x00\x00\x00'
p2163
tp2164
Rp2165
g6
(g18
S' \xb5w?'
p2166
tp2167
Rp2168
tp2169
as(I40
I10
I1
tp2170
(lp2171
(g15
g6
(g18
S'\x00\x00\x80?'
p2172
tp2173
Rp2174
tp2175
a(g906
g6
(g18
S'\x87\xbf\x7f?'
p2176
tp2177
Rp2178
tp2179
a(g913
g6
(g18
S'8\xb7\x7f?'
p2180
tp2181
Rp2182
tp2183
a(g629
g6
(g18
S'\x0ea\x7f?'
p2184
tp2185
Rp2186
tp2187
a(g354
g6
(g18
S'\x8b\x02\x7f?'
p2188
tp2189
Rp2190
tp2191
as(I20
g269
I3
tp2192
(lp2193
(g509
g6
(g18
S'\x00\x00\x80?'
p2194
tp2195
Rp2196
tp2197
a(g58
g6
(g18
S'\x00\x00\x80?'
p2198
tp2199
Rp2200
tp2201
a(g65
g6
(g18
S'\x00\x00\x80?'
p2202
tp2203
Rp2204
tp2205
a(g329
g6
(g18
S'\x00\x00\x80?'
p2206
tp2207
Rp2208
tp2209
a(g72
g6
(g18
S'\x00\x00\x80?'
p2210
tp2211
Rp2212
tp2213
as(I20
I1
I3
tp2214
(lp2215
(g15
g6
(g18
S'\x00\x00\x80?'
p2216
tp2217
Rp2218
tp2219
a(g111
g6
(g18
S'\xba\xff\x7f?'
p2220
tp2221
Rp2222
tp2223
a(g228
g6
(g18
S'/\xff\x7f?'
p2224
tp2225
Rp2226
tp2227
a(g135
g6
(g18
S'h\xfc\x7f?'
p2228
tp2229
Rp2230
tp2231
a(g467
g6
(g18
S'0\xfb\x7f?'
p2232
tp2233
Rp2234
tp2235
as(I40
I3
F0.3
tp2236
(lp2237
(g15
g6
(g18
S'\x00\x00\x80?'
p2238
tp2239
Rp2240
tp2241
a(g173
g6
(g18
S'G\x97w?'
p2242
tp2243
Rp2244
tp2245
a(g211
g6
(g18
S'~\x1ev?'
p2246
tp2247
Rp2248
tp2249
a(g166
g6
(g18
S'\\\xf4u?'
p2250
tp2251
Rp2252
tp2253
a(g111
g6
(g18
S'\xba@r?'
p2254
tp2255
Rp2256
tp2257
as(I40
I10
I3
tp2258
(lp2259
(g15
g6
(g18
S'\x00\x00\x80?'
p2260
tp2261
Rp2262
tp2263
a(g6
(g10
S'\xab\x08\x00\x00\x00\x00\x00\x00'
p2264
tp2265
Rp2266
g6
(g18
S'\xa8\xff\x7f?'
p2267
tp2268
Rp2269
tp2270
a(g211
g6
(g18
S'\xa2\xff\x7f?'
p2271
tp2272
Rp2273
tp2274
a(g988
g6
(g18
S'\x91\xff\x7f?'
p2275
tp2276
Rp2277
tp2278
a(g2096
g6
(g18
S'\x8b\xff\x7f?'
p2279
tp2280
Rp2281
tp2282
as(I18
I3
I10
tp2283
(lp2284
(g6
(g10
S'E\x00\x00\x00\x00\x00\x00\x00'
p2285
tp2286
Rp2287
g6
(g18
S'\x01\x00\x80?'
p2288
tp2289
Rp2290
tp2291
a(g242
g6
(g18
S'\x00\x00\x80?'
p2292
tp2293
Rp2294
tp2295
a(g6
(g10
S'E\x03\x00\x00\x00\x00\x00\x00'
p2296
tp2297
Rp2298
g6
(g18
S'\x00\x00\x80?'
p2299
tp2300
Rp2301
tp2302
a(g15
g6
(g18
S'\x00\x00\x80?'
p2303
tp2304
Rp2305
tp2306
a(g6
(g10
S'\xfc\x06\x00\x00\x00\x00\x00\x00'
p2307
tp2308
Rp2309
g6
(g18
S'\x00\x00\x80?'
p2310
tp2311
Rp2312
tp2313
as(I25
I10
F0.3
tp2314
(lp2315
(g15
g6
(g18
S'\x00\x00\x80?'
p2316
tp2317
Rp2318
tp2319
a(g354
g6
(g18
S'"|x?'
p2320
tp2321
Rp2322
tp2323
a(g424
g6
(g18
S'\xdb\x19x?'
p2324
tp2325
Rp2326
tp2327
a(g6
(g10
S'\xa2\x03\x00\x00\x00\x00\x00\x00'
p2328
tp2329
Rp2330
g6
(g18
S' \xd4s?'
p2331
tp2332
Rp2333
tp2334
a(g118
g6
(g18
S'\xb8js?'
p2335
tp2336
Rp2337
tp2338
as(I25
g269
g91
tp2339
(lp2340
(g15
g6
(g18
S'\xff\xff\x7f?'
p2341
tp2342
Rp2343
tp2344
a(g166
g6
(g18
S'\x17cy?'
p2345
tp2346
Rp2347
tp2348
a(g27
g6
(g18
S'giu?'
p2349
tp2350
Rp2351
tp2352
a(g173
g6
(g18
S'\x06\x18r?'
p2353
tp2354
Rp2355
tp2356
a(g111
g6
(g18
S'h\xe8m?'
p2357
tp2358
Rp2359
tp2360
as(I20
g269
I1
tp2361
(lp2362
(g1595
g6
(g18
S'\x00\x00\x80?'
p2363
tp2364
Rp2365
tp2366
a(g27
g6
(g18
S'\x00\x00\x80?'
p2367
tp2368
Rp2369
tp2370
a(g15
g6
(g18
S'\x00\x00\x80?'
p2371
tp2372
Rp2373
tp2374
a(g166
g6
(g18
S'\x00\x00\x80?'
p2375
tp2376
Rp2377
tp2378
a(g111
g6
(g18
S'\x00\x00\x80?'
p2379
tp2380
Rp2381
tp2382
as(I30
I10
I10
tp2383
(lp2384
(g15
g6
(g18
S'\x00\x00\x80?'
p2385
tp2386
Rp2387
tp2388
a(g6
(g10
S'\x06\x04\x00\x00\x00\x00\x00\x00'
p2389
tp2390
Rp2391
g6
(g18
S'\xff\xff\x7f?'
p2392
tp2393
Rp2394
tp2395
a(g6
(g10
S'6\x08\x00\x00\x00\x00\x00\x00'
p2396
tp2397
Rp2398
g6
(g18
S'\xfa\xff\x7f?'
p2399
tp2400
Rp2401
tp2402
a(g6
(g10
S'\x19\x04\x00\x00\x00\x00\x00\x00'
p2403
tp2404
Rp2405
g6
(g18
S'\xf8\xff\x7f?'
p2406
tp2407
Rp2408
tp2409
a(g6
(g10
S'\xa8\x02\x00\x00\x00\x00\x00\x00'
p2410
tp2411
Rp2412
g6
(g18
S'\xf4\xff\x7f?'
p2413
tp2414
Rp2415
tp2416
as(I18
I3
F0.3
tp2417
(lp2418
(g15
g6
(g18
S'\x00\x00\x80?'
p2419
tp2420
Rp2421
tp2422
a(g354
g6
(g18
S'\xb6\nw?'
p2423
tp2424
Rp2425
tp2426
a(g211
g6
(g18
S'\x96{u?'
p2427
tp2428
Rp2429
tp2430
a(g2085
g6
(g18
S'\xc66s?'
p2431
tp2432
Rp2433
tp2434
a(g135
g6
(g18
S'\xaa r?'
p2435
tp2436
Rp2437
tp2438
as(I30
g53
F0.3
tp2439
(lp2440
(g15
g6
(g18
S'\x00\x00\x80?'
p2441
tp2442
Rp2443
tp2444
a(g111
g6
(g18
S'\x0fk|?'
p2445
tp2446
Rp2447
tp2448
a(g6
(g10
S'\xc9\x02\x00\x00\x00\x00\x00\x00'
p2449
tp2450
Rp2451
g6
(g18
S'\xca\xdbz?'
p2452
tp2453
Rp2454
tp2455
a(g34
g6
(g18
S'\x96\xf1x?'
p2456
tp2457
Rp2458
tp2459
a(g228
g6
(g18
S'3_x?'
p2460
tp2461
Rp2462
tp2463
as(I20
g53
I10
tp2464
(lp2465
(g502
g6
(g18
S'\x00\x00\x80?'
p2466
tp2467
Rp2468
tp2469
a(g6
(g10
S'3\x00\x00\x00\x00\x00\x00\x00'
p2470
tp2471
Rp2472
g6
(g18
S'\x00\x00\x80?'
p2473
tp2474
Rp2475
tp2476
a(g6
(g10
S'5\x00\x00\x00\x00\x00\x00\x00'
p2477
tp2478
Rp2479
g6
(g18
S'\x00\x00\x80?'
p2480
tp2481
Rp2482
tp2483
a(g740
g6
(g18
S'\x00\x00\x80?'
p2484
tp2485
Rp2486
tp2487
a(g754
g6
(g18
S'\x00\x00\x80?'
p2488
tp2489
Rp2490
tp2491
as(I40
I1
I1
tp2492
(lp2493
(g15
g6
(g18
S'\x00\x00\x80?'
p2494
tp2495
Rp2496
tp2497
a(g166
g6
(g18
S'\xfd\x91\x7f?'
p2498
tp2499
Rp2500
tp2501
a(g193
g6
(g18
S'\x8dd\x7f?'
p2502
tp2503
Rp2504
tp2505
a(g27
g6
(g18
S'\x84\xbd~?'
p2506
tp2507
Rp2508
tp2509
a(g111
g6
(g18
S',n~?'
p2510
tp2511
Rp2512
tp2513
as(I40
g269
g91
tp2514
(lp2515
(g15
g6
(g18
S'\x00\x00\x80?'
p2516
tp2517
Rp2518
tp2519
a(g27
g6
(g18
S'\x9f\x19}?'
p2520
tp2521
Rp2522
tp2523
a(g166
g6
(g18
S'\xb9Dz?'
p2524
tp2525
Rp2526
tp2527
a(g354
g6
(g18
S'\x8c\x84w?'
p2528
tp2529
Rp2530
tp2531
a(g6
(g10
S'\xc9\x06\x00\x00\x00\x00\x00\x00'
p2532
tp2533
Rp2534
g6
(g18
S'\x04av?'
p2535
tp2536
Rp2537
tp2538
as(I30
I1
g91
tp2539
(lp2540
(g15
g6
(g18
S'\xff\xff\x7f?'
p2541
tp2542
Rp2543
tp2544
a(g166
g6
(g18
S'\xa07x?'
p2545
tp2546
Rp2547
tp2548
a(g27
g6
(g18
S'\xf7-r?'
p2549
tp2550
Rp2551
tp2552
a(g111
g6
(g18
S'0\xe1i?'
p2553
tp2554
Rp2555
tp2556
a(g118
g6
(g18
S'\xba\xe5d?'
p2557
tp2558
Rp2559
tp2560
as(I30
g269
I1
tp2561
(lp2562
(g15
g6
(g18
S'\x00\x00\x80?'
p2563
tp2564
Rp2565
tp2566
a(g41
g6
(g18
S'\\\xa9~?'
p2567
tp2568
Rp2569
tp2570
a(g1734
g6
(g18
S'\x98\x99~?'
p2571
tp2572
Rp2573
tp2574
a(g100
g6
(g18
S'\xcdd~?'
p2575
tp2576
Rp2577
tp2578
a(g135
g6
(g18
S'\xc5O~?'
p2579
tp2580
Rp2581
tp2582
as(I18
g91
I10
tp2583
(lp2584
(g509
g6
(g18
S'\x00\x00\x80?'
p2585
tp2586
Rp2587
tp2588
a(g516
g6
(g18
S'\x00\x00\x80?'
p2589
tp2590
Rp2591
tp2592
a(g797
g6
(g18
S'\x00\x00\x80?'
p2593
tp2594
Rp2595
tp2596
a(g551
g6
(g18
S'\x00\x00\x80?'
p2597
tp2598
Rp2599
tp2600
a(g558
g6
(g18
S'\x00\x00\x80?'
p2601
tp2602
Rp2603
tp2604
as(I30
g91
g91
tp2605
(lp2606
(g15
g6
(g18
S'\x00\x00\x80?'
p2607
tp2608
Rp2609
tp2610
a(g27
g6
(g18
S'\x89&}?'
p2611
tp2612
Rp2613
tp2614
a(g111
g6
(g18
S'\xa0%y?'
p2615
tp2616
Rp2617
tp2618
a(g173
g6
(g18
S'^\xa0t?'
p2619
tp2620
Rp2621
tp2622
a(g166
g6
(g18
S'\x1e\x8bs?'
p2623
tp2624
Rp2625
tp2626
as(I25
g91
I10
tp2627
(lp2628
(g6
(g10
S'\x07\x00\x00\x00\x00\x00\x00\x00'
p2629
tp2630
Rp2631
g6
(g18
S'\x00\x00\x80?'
p2632
tp2633
Rp2634
tp2635
a(g6
(g10
S'\r\x00\x00\x00\x00\x00\x00\x00'
p2636
tp2637
Rp2638
g6
(g18
S'\x00\x00\x80?'
p2639
tp2640
Rp2641
tp2642
a(g6
(g10
S'\x0e\x00\x00\x00\x00\x00\x00\x00'
p2643
tp2644
Rp2645
g6
(g18
S'\x00\x00\x80?'
p2646
tp2647
Rp2648
tp2649
a(g1170
g6
(g18
S'\x00\x00\x80?'
p2650
tp2651
Rp2652
tp2653
a(g509
g6
(g18
S'\x00\x00\x80?'
p2654
tp2655
Rp2656
tp2657
as(I20
g91
I10
tp2658
(lp2659
(g502
g6
(g18
S'\x00\x00\x80?'
p2660
tp2661
Rp2662
tp2663
a(g523
g6
(g18
S'\x00\x00\x80?'
p2664
tp2665
Rp2666
tp2667
a(g740
g6
(g18
S'\x00\x00\x80?'
p2668
tp2669
Rp2670
tp2671
a(g747
g6
(g18
S'\x00\x00\x80?'
p2672
tp2673
Rp2674
tp2675
a(g754
g6
(g18
S'\x00\x00\x80?'
p2676
tp2677
Rp2678
tp2679
as(I30
g269
I3
tp2680
(lp2681
(g58
g6
(g18
S'\x00\x00\x80?'
p2682
tp2683
Rp2684
tp2685
a(g65
g6
(g18
S'\x00\x00\x80?'
p2686
tp2687
Rp2688
tp2689
a(g329
g6
(g18
S'\x00\x00\x80?'
p2690
tp2691
Rp2692
tp2693
a(g72
g6
(g18
S'\x00\x00\x80?'
p2694
tp2695
Rp2696
tp2697
a(g79
g6
(g18
S'\x00\x00\x80?'
p2698
tp2699
Rp2700
tp2701
as(I20
I1
F0.3
tp2702
(lp2703
(g15
g6
(g18
S'\x00\x00\x80?'
p2704
tp2705
Rp2706
tp2707
a(g27
g6
(g18
S'\x90\xdcx?'
p2708
tp2709
Rp2710
tp2711
a(g173
g6
(g18
S'y?r?'
p2712
tp2713
Rp2714
tp2715
a(g365
g6
(g18
S'\x96\xcdp?'
p2716
tp2717
Rp2718
tp2719
a(g228
g6
(g18
S'\x8c\xbco?'
p2720
tp2721
Rp2722
tp2723
as(I30
g269
F0.3
tp2724
(lp2725
(g15
g6
(g18
S'\x00\x00\x80?'
p2726
tp2727
Rp2728
tp2729
a(g118
g6
(g18
S'W\xe3|?'
p2730
tp2731
Rp2732
tp2733
a(g173
g6
(g18
S'\x19\xe2|?'
p2734
tp2735
Rp2736
tp2737
a(g211
g6
(g18
S'}\xb0|?'
p2738
tp2739
Rp2740
tp2741
a(g27
g6
(g18
S'Ol{?'
p2742
tp2743
Rp2744
tp2745
as(I30
I10
F0.3
tp2746
(lp2747
(g15
g6
(g18
S'\x00\x00\x80?'
p2748
tp2749
Rp2750
tp2751
a(g111
g6
(g18
S'\xad\xfdo?'
p2752
tp2753
Rp2754
tp2755
a(g906
g6
(g18
S'xTo?'
p2756
tp2757
Rp2758
tp2759
a(g605
g6
(g18
S'j\nn?'
p2760
tp2761
Rp2762
tp2763
a(g34
g6
(g18
S'\x07ul?'
p2764
tp2765
Rp2766
tp2767
as(I30
I3
g91
tp2768
(lp2769
(g15
g6
(g18
S'\xff\xff\x7f?'
p2770
tp2771
Rp2772
tp2773
a(g111
g6
(g18
S'\x9a*z?'
p2774
tp2775
Rp2776
tp2777
a(g382
g6
(g18
S'\xcd\xbby?'
p2778
tp2779
Rp2780
tp2781
a(g27
g6
(g18
S'\xc5\xb3y?'
p2782
tp2783
Rp2784
tp2785
a(g173
g6
(g18
S'\xbd\xe6x?'
p2786
tp2787
Rp2788
tp2789
as(I20
I3
I10
tp2790
(lp2791
(g15
g6
(g18
S'\x00\x00\x80?'
p2792
tp2793
Rp2794
tp2795
a(g6
(g10
S'\xf5\x07\x00\x00\x00\x00\x00\x00'
p2796
tp2797
Rp2798
g6
(g18
S'\x02\xfd\x7f?'
p2799
tp2800
Rp2801
tp2802
a(g6
(g10
S'\xb2\x03\x00\x00\x00\x00\x00\x00'
p2803
tp2804
Rp2805
g6
(g18
S'~\xfc\x7f?'
p2806
tp2807
Rp2808
tp2809
a(g516
g6
(g18
S'd\xfc\x7f?'
p2810
tp2811
Rp2812
tp2813
a(g6
(g10
S'\x17\x01\x00\x00\x00\x00\x00\x00'
p2814
tp2815
Rp2816
g6
(g18
S'C\xfc\x7f?'
p2817
tp2818
Rp2819
tp2820
as(I18
g91
F0.3
tp2821
(lp2822
(g15
g6
(g18
S'\x00\x00\x80?'
p2823
tp2824
Rp2825
tp2826
a(g118
g6
(g18
S'\xfa\xff\x7f?'
p2827
tp2828
Rp2829
tp2830
a(g111
g6
(g18
S']\xc7}?'
p2831
tp2832
Rp2833
tp2834
a(g467
g6
(g18
S'ek}?'
p2835
tp2836
Rp2837
tp2838
a(g675
g6
(g18
S'@\xfc|?'
p2839
tp2840
Rp2841
tp2842
as(I30
I3
I1
tp2843
(lp2844
(g15
g6
(g18
S'\xff\xff\x7f?'
p2845
tp2846
Rp2847
tp2848
a(g111
g6
(g18
S'\x88a\x7f?'
p2849
tp2850
Rp2851
tp2852
a(g6
(g10
S'&\x07\x00\x00\x00\x00\x00\x00'
p2853
tp2854
Rp2855
g6
(g18
S'\x04\xec~?'
p2856
tp2857
Rp2858
tp2859
a(g6
(g10
S'\xd8\x07\x00\x00\x00\x00\x00\x00'
p2860
tp2861
Rp2862
g6
(g18
S'\t\x94~?'
p2863
tp2864
Rp2865
tp2866
a(g467
g6
(g18
S'\xe9c~?'
p2867
tp2868
Rp2869
tp2870
as(I25
I1
F0.3
tp2871
(lp2872
(g15
g6
(g18
S'\x00\x00\x80?'
p2873
tp2874
Rp2875
tp2876
a(g27
g6
(g18
S'\xc7\xa8n?'
p2877
tp2878
Rp2879
tp2880
a(g135
g6
(g18
S'a\xf3k?'
p2881
tp2882
Rp2883
tp2884
a(g149
g6
(g18
S'\x0e\xafk?'
p2885
tp2886
Rp2887
tp2888
a(g605
g6
(g18
S'l\x1ak?'
p2889
tp2890
Rp2891
tp2892
as(I40
g91
I10
tp2893
(lp2894
(g502
g6
(g18
S'\x00\x00\x80?'
p2895
tp2896
Rp2897
tp2898
a(g509
g6
(g18
S'\x00\x00\x80?'
p2899
tp2900
Rp2901
tp2902
a(g516
g6
(g18
S'\x00\x00\x80?'
p2903
tp2904
Rp2905
tp2906
a(g1157
g6
(g18
S'\x00\x00\x80?'
p2907
tp2908
Rp2909
tp2910
a(g523
g6
(g18
S'\x00\x00\x80?'
p2911
tp2912
Rp2913
tp2914
as(I25
I10
I1
tp2915
(lp2916
(g15
g6
(g18
S'\x00\x00\x80?'
p2917
tp2918
Rp2919
tp2920
a(g424
g6
(g18
S'\x89\x85}?'
p2921
tp2922
Rp2923
tp2924
a(g1017
g6
(g18
S'`l|?'
p2925
tp2926
Rp2927
tp2928
a(g173
g6
(g18
S't\xedz?'
p2929
tp2930
Rp2931
tp2932
a(g166
g6
(g18
S'\xc6Oy?'
p2933
tp2934
Rp2935
tp2936
as(I25
I3
I3
tp2937
(lp2938
(g15
g6
(g18
S'\x00\x00\x80?'
p2939
tp2940
Rp2941
tp2942
a(g228
g6
(g18
S'\x13\xf9\x7f?'
p2943
tp2944
Rp2945
tp2946
a(g467
g6
(g18
S'|\xf1\x7f?'
p2947
tp2948
Rp2949
tp2950
a(g6
(g10
S'\xa3\x02\x00\x00\x00\x00\x00\x00'
p2951
tp2952
Rp2953
g6
(g18
S'\xb6\xea\x7f?'
p2954
tp2955
Rp2956
tp2957
a(g111
g6
(g18
S',\xe8\x7f?'
p2958
tp2959
Rp2960
tp2961
as(I30
I3
I3
tp2962
(lp2963
(g15
g6
(g18
S'\x01\x00\x80?'
p2964
tp2965
Rp2966
tp2967
a(g228
g6
(g18
S'\x8f\xf8\x7f?'
p2968
tp2969
Rp2970
tp2971
a(g467
g6
(g18
S'\xa8\xf0\x7f?'
p2972
tp2973
Rp2974
tp2975
a(g2953
g6
(g18
S'\xdd\xe7\x7f?'
p2976
tp2977
Rp2978
tp2979
a(g111
g6
(g18
S']\xe3\x7f?'
p2980
tp2981
Rp2982
tp2983
as(I25
I10
g91
tp2984
(lp2985
(g15
g6
(g18
S'\x00\x00\x80?'
p2986
tp2987
Rp2988
tp2989
a(g6
(g10
S'G\x05\x00\x00\x00\x00\x00\x00'
p2990
tp2991
Rp2992
g6
(g18
S'\xc9\xff\x7f?'
p2993
tp2994
Rp2995
tp2996
a(g6
(g10
S'\xf1\x05\x00\x00\x00\x00\x00\x00'
p2997
tp2998
Rp2999
g6
(g18
S'\xbc\xff\x7f?'
p3000
tp3001
Rp3002
tp3003
a(g180
g6
(g18
S'\xba\xff\x7f?'
p3004
tp3005
Rp3006
tp3007
a(g2405
g6
(g18
S'\x8a\xff\x7f?'
p3008
tp3009
Rp3010
tp3011
as(I18
I1
I3
tp3012
(lp3013
(g15
g6
(g18
S'\x00\x00\x80?'
p3014
tp3015
Rp3016
tp3017
a(g2165
g6
(g18
S'\xfa\xff\x7f?'
p3018
tp3019
Rp3020
tp3021
a(g1651
g6
(g18
S'N\xff\x7f?'
p3022
tp3023
Rp3024
tp3025
a(g111
g6
(g18
S'}\xfb\x7f?'
p3026
tp3027
Rp3028
tp3029
a(g118
g6
(g18
S'>\xfa\x7f?'
p3030
tp3031
Rp3032
tp3033
as(I25
I10
I3
tp3034
(lp3035
(g15
g6
(g18
S'\x00\x00\x80?'
p3036
tp3037
Rp3038
tp3039
a(g228
g6
(g18
S'\x9f\xd6\x7f?'
p3040
tp3041
Rp3042
tp3043
a(g906
g6
(g18
S'\x93\xd6\x7f?'
p3044
tp3045
Rp3046
tp3047
a(g467
g6
(g18
S'\xc5\xb0\x7f?'
p3048
tp3049
Rp3050
tp3051
a(g675
g6
(g18
S'\xfc\xab\x7f?'
p3052
tp3053
Rp3054
tp3055
as(I18
I10
I10
tp3056
(lp3057
(g15
g6
(g18
S'\x00\x00\x80?'
p3058
tp3059
Rp3060
tp3061
a(g6
(g10
S'$\x07\x00\x00\x00\x00\x00\x00'
p3062
tp3063
Rp3064
g6
(g18
S'\x00\x00\x80?'
p3065
tp3066
Rp3067
tp3068
a(g6
(g10
S'\xb5\x05\x00\x00\x00\x00\x00\x00'
p3069
tp3070
Rp3071
g6
(g18
S'\xff\xff\x7f?'
p3072
tp3073
Rp3074
tp3075
a(g6
(g10
S'\xbf\x01\x00\x00\x00\x00\x00\x00'
p3076
tp3077
Rp3078
g6
(g18
S'\xfe\xff\x7f?'
p3079
tp3080
Rp3081
tp3082
a(g605
g6
(g18
S'\xfd\xff\x7f?'
p3083
tp3084
Rp3085
tp3086
as(I30
g53
g91
tp3087
(lp3088
(g15
g6
(g18
S'\x00\x00\x80?'
p3089
tp3090
Rp3091
tp3092
a(g27
g6
(g18
S'/%w?'
p3093
tp3094
Rp3095
tp3096
a(g118
g6
(g18
S'@8p?'
p3097
tp3098
Rp3099
tp3100
a(g166
g6
(g18
S'EIn?'
p3101
tp3102
Rp3103
tp3104
a(g111
g6
(g18
S'\x058n?'
p3105
tp3106
Rp3107
tp3108
as(I25
I3
I1
tp3109
(lp3110
(g15
g6
(g18
S'\x00\x00\x80?'
p3111
tp3112
Rp3113
tp3114
a(g111
g6
(g18
S'\xbc\xc1~?'
p3115
tp3116
Rp3117
tp3118
a(g952
g6
(g18
S'\x85\x0b~?'
p3119
tp3120
Rp3121
tp3122
a(g166
g6
(g18
S'\xe4\x7f}?'
p3123
tp3124
Rp3125
tp3126
a(g27
g6
(g18
S'JK}?'
p3127
tp3128
Rp3129
tp3130
as(I20
g269
g91
tp3131
(lp3132
(g15
g6
(g18
S'\xff\xff\x7f?'
p3133
tp3134
Rp3135
tp3136
a(g2012
g6
(g18
S'f\xf9\x7f?'
p3137
tp3138
Rp3139
tp3140
a(g48
g6
(g18
S'm\xb7\x7f?'
p3141
tp3142
Rp3143
tp3144
a(g2451
g6
(g18
S'T\x9b\x7f?'
p3145
tp3146
Rp3147
tp3148
a(g111
g6
(g18
S'?\x85\x7f?'
p3149
tp3150
Rp3151
tp3152
as(I18
I1
I1
tp3153
(lp3154
(g15
g6
(g18
S'\x00\x00\x80?'
p3155
tp3156
Rp3157
tp3158
a(g166
g6
(g18
S'\x8d\xf0\x7f?'
p3159
tp3160
Rp3161
tp3162
a(g135
g6
(g18
S'H\xc3\x7f?'
p3163
tp3164
Rp3165
tp3166
a(g629
g6
(g18
S'\xf9\xbf\x7f?'
p3167
tp3168
Rp3169
tp3170
a(g111
g6
(g18
S'0\xa6\x7f?'
p3171
tp3172
Rp3173
tp3174
as(I25
I3
g91
tp3175
(lp3176
(g15
g6
(g18
S'\x00\x00\x80?'
p3177
tp3178
Rp3179
tp3180
a(g166
g6
(g18
S'\xe19o?'
p3181
tp3182
Rp3183
tp3184
a(g27
g6
(g18
S'\xcc\x13o?'
p3185
tp3186
Rp3187
tp3188
a(g211
g6
(g18
S'\x13\xbdm?'
p3189
tp3190
Rp3191
tp3192
a(g118
g6
(g18
S'\x8a\x85l?'
p3193
tp3194
Rp3195
tp3196
as(I18
I1
g91
tp3197
(lp3198
(g15
g6
(g18
S'\x00\x00\x80?'
p3199
tp3200
Rp3201
tp3202
a(g365
g6
(g18
S'\x02I}?'
p3203
tp3204
Rp3205
tp3206
a(g27
g6
(g18
S'\x90\x94v?'
p3207
tp3208
Rp3209
tp3210
a(g424
g6
(g18
S'\x12Gu?'
p3211
tp3212
Rp3213
tp3214
a(g166
g6
(g18
S'6\xecp?'
p3215
tp3216
Rp3217
tp3218
as(I40
g269
I3
tp3219
(lp3220
(g58
g6
(g18
S'\x00\x00\x80?'
p3221
tp3222
Rp3223
tp3224
a(g329
g6
(g18
S'\x00\x00\x80?'
p3225
tp3226
Rp3227
tp3228
a(g72
g6
(g18
S'\x00\x00\x80?'
p3229
tp3230
Rp3231
tp3232
a(g79
g6
(g18
S'\x00\x00\x80?'
p3233
tp3234
Rp3235
tp3236
a(g86
g6
(g18
S'\x00\x00\x80?'
p3237
tp3238
Rp3239
tp3240
as(I40
g269
F0.3
tp3241
(lp3242
(g15
g6
(g18
S'\x00\x00\x80?'
p3243
tp3244
Rp3245
tp3246
a(g135
g6
(g18
S'7\xe2x?'
p3247
tp3248
Rp3249
tp3250
a(g100
g6
(g18
S'O\xa4x?'
p3251
tp3252
Rp3253
tp3254
a(g242
g6
(g18
S'\x995v?'
p3255
tp3256
Rp3257
tp3258
a(g166
g6
(g18
S'\xdc-t?'
p3259
tp3260
Rp3261
tp3262
as(I40
I3
I10
tp3263
(lp3264
(g6
(g10
S'\xec\x03\x00\x00\x00\x00\x00\x00'
p3265
tp3266
Rp3267
g6
(g18
S'\x00\x00\x80?'
p3268
tp3269
Rp3270
tp3271
a(g6
(g10
S'p\x06\x00\x00\x00\x00\x00\x00'
p3272
tp3273
Rp3274
g6
(g18
S'\x00\x00\x80?'
p3275
tp3276
Rp3277
tp3278
a(g864
g6
(g18
S'\xff\xff\x7f?'
p3279
tp3280
Rp3281
tp3282
a(g6
(g10
S'=\x02\x00\x00\x00\x00\x00\x00'
p3283
tp3284
Rp3285
g6
(g18
S'\xff\xff\x7f?'
p3286
tp3287
Rp3288
tp3289
a(g6
(g10
S'\xe7\x04\x00\x00\x00\x00\x00\x00'
p3290
tp3291
Rp3292
g6
(g18
S'\xff\xff\x7f?'
p3293
tp3294
Rp3295
tp3296
as(I40
I1
I3
tp3297
(lp3298
(g15
g6
(g18
S'\x00\x00\x80?'
p3299
tp3300
Rp3301
tp3302
a(g6
(g10
S'\xec\x06\x00\x00\x00\x00\x00\x00'
p3303
tp3304
Rp3305
g6
(g18
S'\xe7\xff\x7f?'
p3306
tp3307
Rp3308
tp3309
a(g118
g6
(g18
S'\x8b\xff\x7f?'
p3310
tp3311
Rp3312
tp3313
a(g467
g6
(g18
S'\xc9\xfe\x7f?'
p3314
tp3315
Rp3316
tp3317
a(g111
g6
(g18
S'\xdd\xfd\x7f?'
p3318
tp3319
Rp3320
tp3321
as(I30
g91
I3
tp3322
(lp3323
(g58
g6
(g18
S'\x00\x00\x80?'
p3324
tp3325
Rp3326
tp3327
a(g65
g6
(g18
S'\x00\x00\x80?'
p3328
tp3329
Rp3330
tp3331
a(g72
g6
(g18
S'\x00\x00\x80?'
p3332
tp3333
Rp3334
tp3335
a(g79
g6
(g18
S'\x00\x00\x80?'
p3336
tp3337
Rp3338
tp3339
a(g86
g6
(g18
S'\x00\x00\x80?'
p3340
tp3341
Rp3342
tp3343
as(I20
I10
I10
tp3344
(lp3345
(g15
g6
(g18
S'\x00\x00\x80?'
p3346
tp3347
Rp3348
tp3349
a(g204
g6
(g18
S'T\xff\x7f?'
p3350
tp3351
Rp3352
tp3353
a(g6
(g10
S'/\x04\x00\x00\x00\x00\x00\x00'
p3354
tp3355
Rp3356
g6
(g18
S'w\xfb\x7f?'
p3357
tp3358
Rp3359
tp3360
a(g1238
g6
(g18
S'\t\xf9\x7f?'
p3361
tp3362
Rp3363
tp3364
a(g605
g6
(g18
S'^\xf4\x7f?'
p3365
tp3366
Rp3367
tp3368
as(I40
g269
I1
tp3369
(lp3370
(g15
g6
(g18
S'\xff\xff\x7f?'
p3371
tp3372
Rp3373
tp3374
a(g41
g6
(g18
S'XR\x7f?'
p3375
tp3376
Rp3377
tp3378
a(g952
g6
(g18
S'\x91\x18~?'
p3379
tp3380
Rp3381
tp3382
a(g166
g6
(g18
S'\xc8b}?'
p3383
tp3384
Rp3385
tp3386
a(g1542
g6
(g18
S'\xacD}?'
p3387
tp3388
Rp3389
tp3390
as(I30
g269
g91
tp3391
(lp3392
(g15
g6
(g18
S'\x00\x00\x80?'
p3393
tp3394
Rp3395
tp3396
a(g166
g6
(g18
S'\x91$v?'
p3397
tp3398
Rp3399
tp3400
a(g27
g6
(g18
S'\x98bk?'
p3401
tp3402
Rp3403
tp3404
a(g173
g6
(g18
S'\xed`j?'
p3405
tp3406
Rp3407
tp3408
a(g242
g6
(g18
S'\x91Fh?'
p3409
tp3410
Rp3411
tp3412
as(I18
g53
I10
tp3413
(lp3414
(g502
g6
(g18
S'\x00\x00\x80?'
p3415
tp3416
Rp3417
tp3418
a(g509
g6
(g18
S'\x00\x00\x80?'
p3419
tp3420
Rp3421
tp3422
a(g516
g6
(g18
S'\x00\x00\x80?'
p3423
tp3424
Rp3425
tp3426
a(g1157
g6
(g18
S'\x00\x00\x80?'
p3427
tp3428
Rp3429
tp3430
a(g523
g6
(g18
S'\x00\x00\x80?'
p3431
tp3432
Rp3433
tp3434
as(I30
g91
I1
tp3435
(lp3436
(g15
g6
(g18
S'\x00\x00\x80?'
p3437
tp3438
Rp3439
tp3440
a(g329
g6
(g18
S'\xef\xfc\x7f?'
p3441
tp3442
Rp3443
tp3444
a(g135
g6
(g18
S'\xd0\xf3\x7f?'
p3445
tp3446
Rp3447
tp3448
a(g111
g6
(g18
S'\x0c\xe1\x7f?'
p3449
tp3450
Rp3451
tp3452
a(g6
(g10
S'\xa9\x07\x00\x00\x00\x00\x00\x00'
p3453
tp3454
Rp3455
g6
(g18
S';\xac\x7f?'
p3456
tp3457
Rp3458
tp3459
as(I20
I10
F0.3
tp3460
(lp3461
(g15
g6
(g18
S'\x00\x00\x80?'
p3462
tp3463
Rp3464
tp3465
a(g166
g6
(g18
S'\xb4D}?'
p3466
tp3467
Rp3468
tp3469
a(g424
g6
(g18
S'\xfb)z?'
p3470
tp3471
Rp3472
tp3473
a(g173
g6
(g18
S'\xcc\xbcx?'
p3474
tp3475
Rp3476
tp3477
a(g913
g6
(g18
S'\x83\x0fw?'
p3478
tp3479
Rp3480
tp3481
as(I25
g269
I10
tp3482
(lp3483
(g502
g6
(g18
S'\x00\x00\x80?'
p3484
tp3485
Rp3486
tp3487
a(g509
g6
(g18
S'\x00\x00\x80?'
p3488
tp3489
Rp3490
tp3491
a(g516
g6
(g18
S'\x00\x00\x80?'
p3492
tp3493
Rp3494
tp3495
a(g1157
g6
(g18
S'\x00\x00\x80?'
p3496
tp3497
Rp3498
tp3499
a(g523
g6
(g18
S'\x00\x00\x80?'
p3500
tp3501
Rp3502
tp3503
as(I18
I3
g91
tp3504
(lp3505
(g15
g6
(g18
S'\x00\x00\x80?'
p3506
tp3507
Rp3508
tp3509
a(g27
g6
(g18
S'\xe6\xf6}?'
p3510
tp3511
Rp3512
tp3513
a(g193
g6
(g18
S'\xa6\xec|?'
p3514
tp3515
Rp3516
tp3517
a(g211
g6
(g18
S'\xde\xde{?'
p3518
tp3519
Rp3520
tp3521
a(g173
g6
(g18
S'\x87\xd2y?'
p3522
tp3523
Rp3524
tp3525
as(I30
g91
F0.3
tp3526
(lp3527
(g15
g6
(g18
S'\x00\x00\x80?'
p3528
tp3529
Rp3530
tp3531
a(g6
(g10
S'\xf5\x03\x00\x00\x00\x00\x00\x00'
p3532
tp3533
Rp3534
g6
(g18
S'.jz?'
p3535
tp3536
Rp3537
tp3538
a(g118
g6
(g18
S'\xc0Yz?'
p3539
tp3540
Rp3541
tp3542
a(g235
g6
(g18
S'jKz?'
p3543
tp3544
Rp3545
tp3546
a(g173
g6
(g18
S'\xeb\xf0y?'
p3547
tp3548
Rp3549
tp3550
as(I25
I10
I10
tp3551
(lp3552
(g6
(g10
S'\xd7\x01\x00\x00\x00\x00\x00\x00'
p3553
tp3554
Rp3555
g6
(g18
S'\x00\x00\x80?'
p3556
tp3557
Rp3558
tp3559
a(g6
(g10
S'\xc6\x05\x00\x00\x00\x00\x00\x00'
p3560
tp3561
Rp3562
g6
(g18
S'\x00\x00\x80?'
p3563
tp3564
Rp3565
tp3566
a(g15
g6
(g18
S'\xff\xff\x7f?'
p3567
tp3568
Rp3569
tp3570
a(g6
(g10
S'%\x02\x00\x00\x00\x00\x00\x00'
p3571
tp3572
Rp3573
g6
(g18
S'\xfd\xff\x7f?'
p3574
tp3575
Rp3576
tp3577
a(g6
(g10
S'\x8d\x04\x00\x00\x00\x00\x00\x00'
p3578
tp3579
Rp3580
g6
(g18
S'\xf6\xff\x7f?'
p3581
tp3582
Rp3583
tp3584
as(I20
g91
F0.3
tp3585
(lp3586
(g15
g6
(g18
S'\x00\x00\x80?'
p3587
tp3588
Rp3589
tp3590
a(g27
g6
(g18
S'`jy?'
p3591
tp3592
Rp3593
tp3594
a(g34
g6
(g18
S'{`y?'
p3595
tp3596
Rp3597
tp3598
a(g41
g6
(g18
S'{Zy?'
p3599
tp3600
Rp3601
tp3602
a(g100
g6
(g18
S'&\x95x?'
p3603
tp3604
Rp3605
tp3606
as(I40
I10
I10
tp3607
(lp3608
(g6
(g10
S'\xc6\x00\x00\x00\x00\x00\x00\x00'
p3609
tp3610
Rp3611
g6
(g18
S'\x01\x00\x80?'
p3612
tp3613
Rp3614
tp3615
a(g1459
g6
(g18
S'\x00\x00\x80?'
p3616
tp3617
Rp3618
tp3619
a(g1466
g6
(g18
S'\x00\x00\x80?'
p3620
tp3621
Rp3622
tp3623
a(g502
g6
(g18
S'\x00\x00\x80?'
p3624
tp3625
Rp3626
tp3627
a(g6
(g10
S'\x04\x00\x00\x00\x00\x00\x00\x00'
p3628
tp3629
Rp3630
g6
(g18
S'\x00\x00\x80?'
p3631
tp3632
Rp3633
tp3634
as(I30
I1
I10
tp3635
(lp3636
(g1459
g6
(g18
S'\x00\x00\x80?'
p3637
tp3638
Rp3639
tp3640
a(g1466
g6
(g18
S'\x00\x00\x80?'
p3641
tp3642
Rp3643
tp3644
a(g502
g6
(g18
S'\x00\x00\x80?'
p3645
tp3646
Rp3647
tp3648
a(g3630
g6
(g18
S'\x00\x00\x80?'
p3649
tp3650
Rp3651
tp3652
a(g6
(g10
S'\x06\x00\x00\x00\x00\x00\x00\x00'
p3653
tp3654
Rp3655
g6
(g18
S'\x00\x00\x80?'
p3656
tp3657
Rp3658
tp3659
as(I30
I10
I3
tp3660
(lp3661
(g15
g6
(g18
S'\xff\xff\x7f?'
p3662
tp3663
Rp3664
tp3665
a(g228
g6
(g18
S'T\xea\x7f?'
p3666
tp3667
Rp3668
tp3669
a(g6
(g10
S'\x07\x04\x00\x00\x00\x00\x00\x00'
p3670
tp3671
Rp3672
g6
(g18
S'y\xd1\x7f?'
p3673
tp3674
Rp3675
tp3676
a(g6
(g10
S'\x1a\x08\x00\x00\x00\x00\x00\x00'
p3677
tp3678
Rp3679
g6
(g18
S'\xc4\xcf\x7f?'
p3680
tp3681
Rp3682
tp3683
a(g6
(g10
S'o\x05\x00\x00\x00\x00\x00\x00'
p3684
tp3685
Rp3686
g6
(g18
S'\xe7\xc3\x7f?'
p3687
tp3688
Rp3689
tp3690
as(I20
g53
F0.3
tp3691
(lp3692
(g15
g6
(g18
S'\x00\x00\x80?'
p3693
tp3694
Rp3695
tp3696
a(g2451
g6
(g18
S'\xc4\xb4z?'
p3697
tp3698
Rp3699
tp3700
a(g2085
g6
(g18
S'L\xa8v?'
p3701
tp3702
Rp3703
tp3704
a(g1017
g6
(g18
S'HZu?'
p3705
tp3706
Rp3707
tp3708
a(g118
g6
(g18
S'\x1e\x1ds?'
p3709
tp3710
Rp3711
tp3712
as(I30
I10
g91
tp3713
(lp3714
(g1459
g6
(g18
S'\x00\x00\x80?'
p3715
tp3716
Rp3717
tp3718
a(g6
(g10
S'\x14\x00\x00\x00\x00\x00\x00\x00'
p3719
tp3720
Rp3721
g6
(g18
S'\x00\x00\x80?'
p3722
tp3723
Rp3724
tp3725
a(g6
(g10
S'\x16\x00\x00\x00\x00\x00\x00\x00'
p3726
tp3727
Rp3728
g6
(g18
S'\x00\x00\x80?'
p3729
tp3730
Rp3731
tp3732
a(g516
g6
(g18
S'\x00\x00\x80?'
p3733
tp3734
Rp3735
tp3736
a(g6
(g10
S'*\x00\x00\x00\x00\x00\x00\x00'
p3737
tp3738
Rp3739
g6
(g18
S'\x00\x00\x80?'
p3740
tp3741
Rp3742
tp3743
as(I30
I10
I1
tp3744
(lp3745
(g15
g6
(g18
S'\x00\x00\x80?'
p3746
tp3747
Rp3748
tp3749
a(g829
g6
(g18
S'\x8eL}?'
p3750
tp3751
Rp3752
tp3753
a(g173
g6
(g18
S'n\xe3{?'
p3754
tp3755
Rp3756
tp3757
a(g913
g6
(g18
S'\xda\xa3{?'
p3758
tp3759
Rp3760
tp3761
a(g3672
g6
(g18
S'\xa5i{?'
p3762
tp3763
Rp3764
tp3765
as.